Certificate:
    Data:
        Version: 3 (0x2)
        Serial Number: 4099 (0x1003)
    Signature Algorithm: sha256WithRSAEncryption
        Issuer: O=NodeOPCUA, CN=NodeOPCUA
        Validity
            Not Before: May 30 08:26:47 2017 GMT
            Not After : May 30 08:26:47 2018 GMT
        Subject: O=NodeOPCUA, CN=NodeOPCUA
        Subject Public Key Info:
            Public Key Algorithm: rsaEncryption
                Public-Key: (2048 bit)
                Modulus:
                    00:b8:ad:0f:20:75:1b:2e:1e:e5:6d:e4:91:2b:df:
                    8f:c4:84:2d:cc:b0:f0:bb:79:09:64:05:fd:95:69:
                    69:d2:ba:a5:a3:08:b3:58:ab:99:e7:b5:49:63:03:
                    6d:40:f6:75:85:23:8b:e9:f2:5f:35:20:e0:43:8d:
                    f6:ef:02:a5:6e:fd:62:43:20:0f:2b:7e:d7:0d:0b:
                    71:3d:cd:df:5d:b7:92:bc:48:e8:3b:29:d3:5c:11:
                    d7:1d:d8:d7:c3:ae:38:e3:18:4d:93:d2:fd:00:19:
                    1e:31:02:c4:da:e3:41:d6:64:bd:33:9a:e6:1c:5f:
                    b2:02:d5:80:a8:4f:4e:23:96:9d:6a:2b:8a:ec:36:
                    8b:df:67:97:00:96:84:d5:b8:47:6d:b8:ca:f3:25:
                    05:fe:4e:19:f4:f5:0d:59:0a:9e:ec:05:c2:a7:77:
                    ca:fa:f4:7a:92:90:6a:ab:8a:e3:37:68:2d:e4:da:
                    9e:95:6d:f0:a6:a9:26:fa:7f:ae:11:6c:1f:f0:42:
                    8b:aa:31:98:89:5e:1b:e9:e2:d3:02:70:b3:09:5e:
                    c5:94:e9:1b:2d:d5:68:c0:46:8f:02:8b:d0:1d:9a:
                    34:36:9a:f5:64:95:26:91:8a:16:a3:11:f1:f1:5c:
                    c1:74:58:51:aa:63:9b:27:ef:7d:9f:15:20:93:2a:
                    1c:89
                Exponent: 65537 (0x10001)
        X509v3 extensions:
            X509v3 Basic Constraints: critical
                CA:FALSE
            X509v3 Subject Key Identifier: 
                8F:02:05:DA:B8:9B:9C:A3:80:D4:17:CB:A0:C7:20:D4:27:89:74:EC
            X509v3 Authority Key Identifier: 
                keyid:8F:02:05:DA:B8:9B:9C:A3:80:D4:17:CB:A0:C7:20:D4:27:89:74:EC
                DirName:/O=NodeOPCUA/CN=NodeOPCUA
                serial:10:03

            X509v3 Subject Alternative Name: 
                URI:urn:NEST-EHUB70.NEST.LOCAL:NodeOPCUA-Client, DNS:localhost, DNS:NEST-EHUB70.NEST.LOCAL
            Netscape Comment: 
                OpenSSL Generated Certificate
            X509v3 Key Usage: critical
                Digital Signature, Non Repudiation, Key Encipherment, Data Encipherment, Key Agreement, Certificate Sign
            X509v3 Extended Key Usage: critical
                TLS Web Server Authentication, TLS Web Client Authentication
    Signature Algorithm: sha256WithRSAEncryption
         a9:ad:88:0b:ac:73:98:aa:26:8c:01:25:a6:9e:4e:7a:2a:cc:
         d0:f0:6e:06:03:ff:71:fa:8e:40:60:a3:b9:b4:2f:22:46:e4:
         72:34:73:a0:df:e4:78:ec:a0:1b:35:57:cd:b9:04:ad:3f:b6:
         cf:7a:72:47:c8:60:2b:d6:80:16:a7:85:0f:64:73:39:6c:d4:
         3a:1f:09:4f:ea:04:80:68:61:0a:e5:07:88:54:b3:8c:94:72:
         ae:05:af:e6:28:6d:d2:00:87:88:ed:06:08:4c:f4:20:b7:b3:
         91:f2:66:70:81:d3:a9:fa:46:3a:f0:85:29:8b:6e:9e:ff:d8:
         b4:e2:09:b9:5b:b2:09:c2:f3:e7:a3:25:a8:42:53:f1:9f:22:
         4d:16:74:61:77:c4:05:91:09:c2:b9:4c:23:50:d0:71:75:11:
         28:c0:d4:72:c1:18:ed:f0:0a:c0:31:0a:06:2a:e1:73:78:ea:
         b7:39:97:2e:75:43:f7:91:4b:cc:ef:62:53:3a:1a:64:78:55:
         86:04:8a:31:5e:de:41:48:67:a2:d4:0e:77:a3:fb:94:bf:30:
         04:9a:3a:cc:f9:5a:a2:4f:58:a9:5c:bd:4f:b4:2d:fb:fb:a3:
         dd:b5:37:77:83:98:2a:b5:23:e1:47:d9:1b:0e:f5:5f:f2:5f:
         e0:17:57:52
-----BEGIN CERTIFICATE-----
MIIEETCCAvmgAwIBAgICEAMwDQYJKoZIhvcNAQELBQAwKDESMBAGA1UEChMJTm9k
ZU9QQ1VBMRIwEAYDVQQDEwlOb2RlT1BDVUEwIhgPMjAxNzA1MzAwODI2NDdaGA8y
MDE4MDUzMDA4MjY0N1owKDESMBAGA1UEChMJTm9kZU9QQ1VBMRIwEAYDVQQDEwlO
b2RlT1BDVUEwggEiMA0GCSqGSIb3DQEBAQUAA4IBDwAwggEKAoIBAQC4rQ8gdRsu
HuVt5JEr34/EhC3MsPC7eQlkBf2VaWnSuqWjCLNYq5nntUljA21A9nWFI4vp8l81
IOBDjfbvAqVu/WJDIA8rftcNC3E9zd9dt5K8SOg7KdNcEdcd2NfDrjjjGE2T0v0A
GR4xAsTa40HWZL0zmuYcX7IC1YCoT04jlp1qK4rsNovfZ5cAloTVuEdtuMrzJQX+
Thn09Q1ZCp7sBcKnd8r69HqSkGqriuM3aC3k2p6VbfCmqSb6f64RbB/wQouqMZiJ
Xhvp4tMCcLMJXsWU6Rst1WjARo8Ci9AdmjQ2mvVklSaRihajEfHxXMF0WFGqY5sn
732fFSCTKhyJAgMBAAGjggE/MIIBOzAMBgNVHRMBAf8EAjAAMB0GA1UdDgQWBBSP
AgXauJuco4DUF8ugxyDUJ4l07DBRBgNVHSMESjBIgBSPAgXauJuco4DUF8ugxyDU
J4l07KEspCowKDESMBAGA1UEChMJTm9kZU9QQ1VBMRIwEAYDVQQDEwlOb2RlT1BD
VUGCAhADMFkGA1UdEQRSMFCGK3VybjpORVNULUVIVUI3MC5ORVNULkxPQ0FMOk5v
ZGVPUENVQS1DbGllbnSCCWxvY2FsaG9zdIIWTkVTVC1FSFVCNzAuTkVTVC5MT0NB
TDAsBglghkgBhvhCAQ0EHxYdT3BlblNTTCBHZW5lcmF0ZWQgQ2VydGlmaWNhdGUw
DgYDVR0PAQH/BAQDAgL8MCAGA1UdJQEB/wQWMBQGCCsGAQUFBwMBBggrBgEFBQcD
AjANBgkqhkiG9w0BAQsFAAOCAQEAqa2IC6xzmKomjAElpp5OeirM0PBuBgP/cfqO
QGCjubQvIkbkcjRzoN/keOygGzVXzbkErT+2z3pyR8hgK9aAFqeFD2RzOWzUOh8J
T+oEgGhhCuUHiFSzjJRyrgWv5iht0gCHiO0GCEz0ILezkfJmcIHTqfpGOvCFKYtu
nv/YtOIJuVuyCcLz56MlqEJT8Z8iTRZ0YXfEBZEJwrlMI1DQcXURKMDUcsEY7fAK
wDEKBirhc3jqtzmXLnVD95FLzO9iUzoaZHhVhgSKMV7eQUhnotQOd6P7lL8wBJo6
zPlaok9YqVy9T7Qt+/uj3bU3d4OYKrUj4UfZGw71X/Jf4BdXUg==
-----END CERTIFICATE-----
