Certificate Request:
    Data:
        Version: 0 (0x0)
        Subject: C=FR, O=NodeOPCUA, CN=NodeOPCUA
        Subject Public Key Info:
            Public Key Algorithm: rsaEncryption
                Public-Key: (2048 bit)
                Modulus:
                    00:b8:ad:0f:20:75:1b:2e:1e:e5:6d:e4:91:2b:df:
                    8f:c4:84:2d:cc:b0:f0:bb:79:09:64:05:fd:95:69:
                    69:d2:ba:a5:a3:08:b3:58:ab:99:e7:b5:49:63:03:
                    6d:40:f6:75:85:23:8b:e9:f2:5f:35:20:e0:43:8d:
                    f6:ef:02:a5:6e:fd:62:43:20:0f:2b:7e:d7:0d:0b:
                    71:3d:cd:df:5d:b7:92:bc:48:e8:3b:29:d3:5c:11:
                    d7:1d:d8:d7:c3:ae:38:e3:18:4d:93:d2:fd:00:19:
                    1e:31:02:c4:da:e3:41:d6:64:bd:33:9a:e6:1c:5f:
                    b2:02:d5:80:a8:4f:4e:23:96:9d:6a:2b:8a:ec:36:
                    8b:df:67:97:00:96:84:d5:b8:47:6d:b8:ca:f3:25:
                    05:fe:4e:19:f4:f5:0d:59:0a:9e:ec:05:c2:a7:77:
                    ca:fa:f4:7a:92:90:6a:ab:8a:e3:37:68:2d:e4:da:
                    9e:95:6d:f0:a6:a9:26:fa:7f:ae:11:6c:1f:f0:42:
                    8b:aa:31:98:89:5e:1b:e9:e2:d3:02:70:b3:09:5e:
                    c5:94:e9:1b:2d:d5:68:c0:46:8f:02:8b:d0:1d:9a:
                    34:36:9a:f5:64:95:26:91:8a:16:a3:11:f1:f1:5c:
                    c1:74:58:51:aa:63:9b:27:ef:7d:9f:15:20:93:2a:
                    1c:89
                Exponent: 65537 (0x10001)
        Attributes:
        Requested Extensions:
            X509v3 Basic Constraints: 
                CA:FALSE
            X509v3 Key Usage: critical
                Certificate Sign, CRL Sign
            X509v3 Subject Alternative Name: 
                URI:undefined
    Signature Algorithm: sha256WithRSAEncryption
         38:dd:f8:a5:d3:ae:42:87:ab:a7:a4:0c:f7:b4:3d:4f:f1:fc:
         04:8e:3e:e3:83:66:26:f5:d4:fa:e0:07:c3:07:a1:d3:69:cc:
         d3:12:b4:ea:0e:96:46:ef:54:53:97:0e:f7:84:fb:d7:dc:c3:
         59:e6:6e:f0:e8:a7:17:10:8a:32:79:0d:90:f0:a2:6f:59:91:
         be:cd:60:7f:83:8f:af:6d:47:27:70:06:18:8b:b3:46:5e:60:
         c7:dd:bf:9a:f4:cb:76:8f:39:13:b7:1a:d3:ac:87:d8:d2:59:
         62:c2:31:9f:e9:12:e6:33:ed:74:6f:dd:87:6d:81:72:b9:92:
         48:64:0d:30:ee:ad:73:08:99:e7:93:0c:98:64:02:07:2c:f4:
         38:df:bf:0b:de:b1:98:c5:0c:b2:55:2a:56:08:d3:17:ad:aa:
         f1:48:c8:21:15:aa:99:fd:63:4e:85:89:4b:35:fb:76:c8:3b:
         c8:24:7d:ce:6f:42:dd:7b:3a:0a:36:84:66:e8:f9:e1:e3:9e:
         93:bf:11:da:f5:27:d7:40:7e:42:e3:c7:90:47:5c:c0:3e:4c:
         3d:ff:4c:da:f9:2e:7f:40:9c:f4:cf:34:84:20:b5:a7:c5:fe:
         aa:68:19:01:d2:08:96:38:9c:18:a5:f8:34:73:72:00:5b:c8:
         05:d3:11:19
-----BEGIN CERTIFICATE REQUEST-----
MIICvDCCAaQCAQAwNTELMAkGA1UEBhMCRlIxEjAQBgNVBAoMCU5vZGVPUENVQTES
MBAGA1UEAwwJTm9kZU9QQ1VBMIIBIjANBgkqhkiG9w0BAQEFAAOCAQ8AMIIBCgKC
AQEAuK0PIHUbLh7lbeSRK9+PxIQtzLDwu3kJZAX9lWlp0rqlowizWKuZ57VJYwNt
QPZ1hSOL6fJfNSDgQ4327wKlbv1iQyAPK37XDQtxPc3fXbeSvEjoOynTXBHXHdjX
w6444xhNk9L9ABkeMQLE2uNB1mS9M5rmHF+yAtWAqE9OI5adaiuK7DaL32eXAJaE
1bhHbbjK8yUF/k4Z9PUNWQqe7AXCp3fK+vR6kpBqq4rjN2gt5NqelW3wpqkm+n+u
EWwf8EKLqjGYiV4b6eLTAnCzCV7FlOkbLdVowEaPAovQHZo0Npr1ZJUmkYoWoxHx
8VzBdFhRqmObJ+99nxUgkyociQIDAQABoEIwQAYJKoZIhvcNAQkOMTMwMTAJBgNV
HRMEAjAAMA4GA1UdDwEB/wQEAwIBBjAUBgNVHREEDTALhgl1bmRlZmluZWQwDQYJ
KoZIhvcNAQELBQADggEBADjd+KXTrkKHq6ekDPe0PU/x/ASOPuODZib11PrgB8MH
odNpzNMStOoOlkbvVFOXDveE+9fcw1nmbvDopxcQijJ5DZDwom9Zkb7NYH+Dj69t
RydwBhiLs0ZeYMfdv5r0y3aPORO3GtOsh9jSWWLCMZ/pEuYz7XRv3YdtgXK5kkhk
DTDurXMImeeTDJhkAgcs9DjfvwvesZjFDLJVKlYI0xetqvFIyCEVqpn9Y06FiUs1
+3bIO8gkfc5vQt17Ogo2hGbo+eHjnpO/Edr1J9dAfkLjx5BHXMA+TD3/TNr5Ln9A
nPTPNIQgtafF/qpoGQHSCJY4nBil+DRzcgBbyAXTERk=
-----END CERTIFICATE REQUEST-----
