Certificate:
    Data:
        Version: 3 (0x2)
        Serial Number: 4097 (0x1001)
    Signature Algorithm: sha256WithRSAEncryption
        Issuer: O=NodeOPCUA, CN=NodeOPCUA
        Validity
            Not Before: May 30 08:26:47 2017 GMT
            Not After : May 30 08:26:47 2018 GMT
        Subject: O=NodeOPCUA, CN=NodeOPCUA
        Subject Public Key Info:
            Public Key Algorithm: rsaEncryption
                Public-Key: (1024 bit)
                Modulus:
                    00:9b:8f:84:83:04:11:1f:e2:9a:11:f3:0d:26:30:
                    4f:52:d0:64:cb:1b:21:06:af:aa:d9:d4:8d:42:5d:
                    0f:f8:85:8b:ed:41:83:8f:56:4c:d4:3d:cd:e0:db:
                    7c:b8:42:c4:4d:ba:01:dc:22:a5:da:cb:fb:6e:d3:
                    c3:b7:af:2e:fa:42:fb:bd:80:a8:15:3f:86:5e:16:
                    23:62:48:35:61:63:88:0d:04:fd:dd:6a:fa:ee:f2:
                    38:3e:fa:df:d8:30:4c:48:8b:d5:39:67:db:02:c3:
                    90:4f:e9:a3:54:ae:dc:be:a3:9a:6e:20:62:91:1f:
                    68:5e:2e:00:97:4c:2c:ec:59
                Exponent: 65537 (0x10001)
        X509v3 extensions:
            X509v3 Basic Constraints: critical
                CA:FALSE
            X509v3 Subject Key Identifier: 
                AE:41:74:D4:29:79:50:27:D9:2B:93:A5:4F:E4:EF:47:57:85:1D:7E
            X509v3 Authority Key Identifier: 
                keyid:AE:41:74:D4:29:79:50:27:D9:2B:93:A5:4F:E4:EF:47:57:85:1D:7E
                DirName:/O=NodeOPCUA/CN=NodeOPCUA
                serial:10:01

            X509v3 Subject Alternative Name: 
                URI:urn:NEST-EHUB70.NEST.LOCAL:NodeOPCUA-Client, DNS:localhost, DNS:NEST-EHUB70.NEST.LOCAL
            Netscape Comment: 
                OpenSSL Generated Certificate
            X509v3 Key Usage: critical
                Digital Signature, Non Repudiation, Key Encipherment, Data Encipherment, Key Agreement, Certificate Sign
            X509v3 Extended Key Usage: critical
                TLS Web Server Authentication, TLS Web Client Authentication
    Signature Algorithm: sha256WithRSAEncryption
         3d:fc:e5:35:45:cc:5f:da:95:d1:47:13:37:90:24:bc:de:17:
         5f:36:61:1d:6d:a2:6e:91:a0:d3:45:8f:1a:84:07:3d:74:f2:
         35:de:f1:cf:a0:a8:e0:1e:d4:de:52:d8:99:4c:89:0c:22:d5:
         5e:dd:5b:6f:4e:44:4a:6c:5c:50:5c:fd:a5:a6:7b:80:cf:a4:
         53:e8:45:24:d5:6a:b9:10:32:c8:5d:96:67:97:46:8e:8c:c5:
         14:27:75:e0:1e:cd:b6:95:4d:3b:4d:5f:b4:b1:b1:a3:66:88:
         87:23:5a:5d:58:6d:ef:78:36:59:6e:0e:0c:27:db:82:f9:47:
         10:ea
-----BEGIN CERTIFICATE-----
MIIDDDCCAnWgAwIBAgICEAEwDQYJKoZIhvcNAQELBQAwKDESMBAGA1UEChMJTm9k
ZU9QQ1VBMRIwEAYDVQQDEwlOb2RlT1BDVUEwIhgPMjAxNzA1MzAwODI2NDdaGA8y
MDE4MDUzMDA4MjY0N1owKDESMBAGA1UEChMJTm9kZU9QQ1VBMRIwEAYDVQQDEwlO
b2RlT1BDVUEwgZ8wDQYJKoZIhvcNAQEBBQADgY0AMIGJAoGBAJuPhIMEER/imhHz
DSYwT1LQZMsbIQavqtnUjUJdD/iFi+1Bg49WTNQ9zeDbfLhCxE26AdwipdrL+27T
w7evLvpC+72AqBU/hl4WI2JINWFjiA0E/d1q+u7yOD7639gwTEiL1Tln2wLDkE/p
o1Su3L6jmm4gYpEfaF4uAJdMLOxZAgMBAAGjggE/MIIBOzAMBgNVHRMBAf8EAjAA
MB0GA1UdDgQWBBSuQXTUKXlQJ9krk6VP5O9HV4UdfjBRBgNVHSMESjBIgBSuQXTU
KXlQJ9krk6VP5O9HV4UdfqEspCowKDESMBAGA1UEChMJTm9kZU9QQ1VBMRIwEAYD
VQQDEwlOb2RlT1BDVUGCAhABMFkGA1UdEQRSMFCGK3VybjpORVNULUVIVUI3MC5O
RVNULkxPQ0FMOk5vZGVPUENVQS1DbGllbnSCCWxvY2FsaG9zdIIWTkVTVC1FSFVC
NzAuTkVTVC5MT0NBTDAsBglghkgBhvhCAQ0EHxYdT3BlblNTTCBHZW5lcmF0ZWQg
Q2VydGlmaWNhdGUwDgYDVR0PAQH/BAQDAgL8MCAGA1UdJQEB/wQWMBQGCCsGAQUF
BwMBBggrBgEFBQcDAjANBgkqhkiG9w0BAQsFAAOBgQA9/OU1Rcxf2pXRRxM3kCS8
3hdfNmEdbaJukaDTRY8ahAc9dPI13vHPoKjgHtTeUtiZTIkMItVe3VtvTkRKbFxQ
XP2lpnuAz6RT6EUk1Wq5EDLIXZZnl0aOjMUUJ3XgHs22lU07TV+0sbGjZoiHI1pd
WG3veDZZbg4MJ9uC+UcQ6g==
-----END CERTIFICATE-----
