Certificate Request:
    Data:
        Version: 0 (0x0)
        Subject: C=FR, O=NodeOPCUA, CN=NodeOPCUA
        Subject Public Key Info:
            Public Key Algorithm: rsaEncryption
                Public-Key: (1024 bit)
                Modulus:
                    00:9b:8f:84:83:04:11:1f:e2:9a:11:f3:0d:26:30:
                    4f:52:d0:64:cb:1b:21:06:af:aa:d9:d4:8d:42:5d:
                    0f:f8:85:8b:ed:41:83:8f:56:4c:d4:3d:cd:e0:db:
                    7c:b8:42:c4:4d:ba:01:dc:22:a5:da:cb:fb:6e:d3:
                    c3:b7:af:2e:fa:42:fb:bd:80:a8:15:3f:86:5e:16:
                    23:62:48:35:61:63:88:0d:04:fd:dd:6a:fa:ee:f2:
                    38:3e:fa:df:d8:30:4c:48:8b:d5:39:67:db:02:c3:
                    90:4f:e9:a3:54:ae:dc:be:a3:9a:6e:20:62:91:1f:
                    68:5e:2e:00:97:4c:2c:ec:59
                Exponent: 65537 (0x10001)
        Attributes:
        Requested Extensions:
            X509v3 Basic Constraints: 
                CA:FALSE
            X509v3 Key Usage: critical
                Certificate Sign, CRL Sign
            X509v3 Subject Alternative Name: 
                URI:undefined
    Signature Algorithm: sha256WithRSAEncryption
         4f:70:73:85:85:80:84:1a:43:51:c7:da:36:6f:b3:52:28:6d:
         e3:ff:08:f4:17:ae:16:09:36:89:bc:4d:51:47:dc:bc:8b:80:
         89:8d:b4:6a:a1:0f:c3:1e:7d:59:7a:66:8a:81:fe:8f:5b:94:
         60:ff:80:e7:00:b3:bc:a3:f1:14:5a:8e:d9:bd:95:f9:50:5c:
         9e:f8:91:65:cd:3d:db:14:a1:f0:33:7c:2e:79:95:7f:7e:c5:
         73:06:b2:af:cd:4f:d8:36:1f:37:7d:8b:3d:65:92:3b:28:cb:
         59:11:04:eb:1f:66:a4:4d:2f:32:76:da:ea:44:44:2f:47:47:
         c0:73
-----BEGIN CERTIFICATE REQUEST-----
MIIBtzCCASACAQAwNTELMAkGA1UEBhMCRlIxEjAQBgNVBAoMCU5vZGVPUENVQTES
MBAGA1UEAwwJTm9kZU9QQ1VBMIGfMA0GCSqGSIb3DQEBAQUAA4GNADCBiQKBgQCb
j4SDBBEf4poR8w0mME9S0GTLGyEGr6rZ1I1CXQ/4hYvtQYOPVkzUPc3g23y4QsRN
ugHcIqXay/tu08O3ry76Qvu9gKgVP4ZeFiNiSDVhY4gNBP3davru8jg++t/YMExI
i9U5Z9sCw5BP6aNUrty+o5puIGKRH2heLgCXTCzsWQIDAQABoEIwQAYJKoZIhvcN
AQkOMTMwMTAJBgNVHRMEAjAAMA4GA1UdDwEB/wQEAwIBBjAUBgNVHREEDTALhgl1
bmRlZmluZWQwDQYJKoZIhvcNAQELBQADgYEAT3BzhYWAhBpDUcfaNm+zUiht4/8I
9BeuFgk2ibxNUUfcvIuAiY20aqEPwx59WXpmioH+j1uUYP+A5wCzvKPxFFqO2b2V
+VBcnviRZc092xSh8DN8LnmVf37Fcwayr81P2DYfN32LPWWSOyjLWREE6x9mpE0v
Mnba6kREL0dHwHM=
-----END CERTIFICATE REQUEST-----
