Certificate Request:
    Data:
        Version: 0 (0x0)
        Subject: C=FR, O=NodeOPCUA, CN=NodeOPCUA
        Subject Public Key Info:
            Public Key Algorithm: rsaEncryption
                Public-Key: (1024 bit)
                Modulus:
                    00:bb:be:1e:0d:52:83:31:64:7a:ab:88:7b:95:5b:
                    dd:83:04:53:7e:e7:f8:e3:21:22:4e:b6:b2:17:1e:
                    e7:31:bd:c1:47:dc:63:a5:d7:06:8e:57:88:2e:ef:
                    75:e4:ba:42:47:a2:7b:5b:ba:fc:34:b5:f6:a5:87:
                    33:52:3e:9f:b9:30:29:1f:65:70:1c:17:b6:ac:9e:
                    e3:5b:0f:ef:ec:6d:c1:df:2f:61:0d:65:77:a4:9d:
                    6b:4f:05:67:55:08:e7:f0:2b:3c:1e:d6:19:d7:06:
                    5d:ce:84:3e:23:15:7c:ae:da:a4:cd:18:06:74:42:
                    47:be:3f:93:ba:12:a8:81:83
                Exponent: 65537 (0x10001)
        Attributes:
        Requested Extensions:
            X509v3 Basic Constraints: 
                CA:FALSE
            X509v3 Key Usage: critical
                Certificate Sign, CRL Sign
            X509v3 Subject Alternative Name: 
                URI:undefined
    Signature Algorithm: sha256WithRSAEncryption
         b7:0f:3c:d9:2b:1f:3d:53:46:2a:4e:65:43:58:d4:67:9b:90:
         d1:61:e0:a0:04:1c:15:95:83:5d:24:c7:b8:b2:fc:11:45:14:
         ff:6a:44:33:12:a5:ce:23:95:c8:ea:6c:0b:42:b9:df:f5:bc:
         d7:72:80:ca:4e:ee:6c:ee:95:93:3b:04:b3:cb:48:c3:ac:35:
         f3:3c:7d:9d:5f:9b:cc:a9:96:b6:0c:b3:65:ad:0e:62:a7:7c:
         0f:60:5a:81:d1:00:35:59:5f:b6:08:b7:c9:31:ec:af:6a:e0:
         84:17:b0:d4:eb:b9:e6:df:5d:0d:7b:2b:23:9d:7b:21:80:b7:
         99:59
-----BEGIN CERTIFICATE REQUEST-----
MIIBtzCCASACAQAwNTELMAkGA1UEBhMCRlIxEjAQBgNVBAoMCU5vZGVPUENVQTES
MBAGA1UEAwwJTm9kZU9QQ1VBMIGfMA0GCSqGSIb3DQEBAQUAA4GNADCBiQKBgQC7
vh4NUoMxZHqriHuVW92DBFN+5/jjISJOtrIXHucxvcFH3GOl1waOV4gu73XkukJH
ontbuvw0tfalhzNSPp+5MCkfZXAcF7asnuNbD+/sbcHfL2ENZXeknWtPBWdVCOfw
Kzwe1hnXBl3OhD4jFXyu2qTNGAZ0Qke+P5O6EqiBgwIDAQABoEIwQAYJKoZIhvcN
AQkOMTMwMTAJBgNVHRMEAjAAMA4GA1UdDwEB/wQEAwIBBjAUBgNVHREEDTALhgl1
bmRlZmluZWQwDQYJKoZIhvcNAQELBQADgYEAtw882SsfPVNGKk5lQ1jUZ5uQ0WHg
oAQcFZWDXSTHuLL8EUUU/2pEMxKlziOVyOpsC0K53/W813KAyk7ubO6VkzsEs8tI
w6w18zx9nV+bzKmWtgyzZa0OYqd8D2BagdEANVlftgi3yTHsr2rghBew1Ou55t9d
DXsrI517IYC3mVk=
-----END CERTIFICATE REQUEST-----
