Certificate Request:
    Data:
        Version: 0 (0x0)
        Subject: C=FR, O=NodeOPCUA, CN=NodeOPCUA
        Subject Public Key Info:
            Public Key Algorithm: rsaEncryption
                Public-Key: (2048 bit)
                Modulus:
                    00:ce:e5:af:f3:a4:74:eb:9d:f4:34:18:a6:d3:2a:
                    c8:69:30:d3:dc:02:de:15:93:05:86:81:b4:ab:bd:
                    c3:c1:f0:b4:58:b7:a9:a4:95:e0:50:9c:b5:66:48:
                    d4:d7:f9:00:d3:95:19:b8:7a:d0:74:1e:a3:44:68:
                    6a:43:ae:55:52:3b:da:1a:50:8f:6d:61:db:0b:95:
                    9d:cb:09:fd:27:62:aa:0d:32:df:14:db:d0:f9:38:
                    9c:7d:42:ba:d8:0f:47:d2:91:16:b6:4e:57:5f:b0:
                    3e:fc:47:8b:1a:c1:7e:21:ab:84:50:1c:6e:11:d6:
                    0f:d7:32:1a:b8:1b:51:3a:03:7c:4c:ff:d1:1c:a3:
                    28:93:97:3b:5c:d5:a8:58:da:91:bf:14:e0:4b:72:
                    d5:82:c8:ee:8f:f1:83:fd:d1:fa:59:60:26:fb:7d:
                    ab:f6:cb:49:c7:6f:e9:ff:ec:3d:28:25:b9:86:12:
                    43:34:1d:41:a3:52:23:c2:7e:88:1d:6b:9e:0d:06:
                    b3:50:ca:0d:5c:75:9a:f2:30:c1:3f:2f:a0:f8:f0:
                    af:2b:65:7f:76:ad:4c:95:ad:bf:da:b4:f4:83:23:
                    d0:ad:19:77:56:44:9a:65:67:33:3f:43:74:ac:9f:
                    cf:73:1f:04:e9:e0:c8:64:a2:20:f8:f8:27:1e:b4:
                    d9:69
                Exponent: 65537 (0x10001)
        Attributes:
        Requested Extensions:
            X509v3 Basic Constraints: 
                CA:FALSE
            X509v3 Key Usage: critical
                Certificate Sign, CRL Sign
            X509v3 Subject Alternative Name: 
                URI:undefined
    Signature Algorithm: sha256WithRSAEncryption
         59:41:e2:e1:df:78:8e:76:a8:fe:f4:77:4c:d3:87:f3:df:bd:
         2c:45:c3:ba:5b:75:8b:aa:dd:f1:0f:a9:cb:45:d0:72:7b:32:
         6c:0d:1d:37:29:71:5d:95:61:da:d7:2c:bd:a4:43:3f:5f:40:
         f3:b9:c6:f1:3a:06:39:a1:19:c9:15:ca:9d:db:31:13:b2:3d:
         1d:e1:9a:ad:7e:a5:6e:df:c7:e9:93:6f:e5:73:5d:c8:71:a6:
         ba:81:93:3a:4d:b9:c3:ef:e5:6c:7a:72:45:a0:9d:7e:b6:e4:
         f0:ea:7a:90:0d:3f:48:77:da:2f:1d:30:19:91:10:de:30:cd:
         ce:91:80:b4:40:e6:63:59:86:9a:b4:97:19:19:92:ec:62:79:
         1d:4c:a9:83:36:28:a0:66:07:e0:cd:de:66:66:d3:a6:46:97:
         29:44:e3:30:b3:6f:6e:98:f1:94:03:fa:76:e1:67:79:ce:a2:
         86:5b:64:4d:a9:7c:85:cd:5d:a4:ec:39:2e:8a:69:30:67:f5:
         19:a5:e3:d1:e3:c1:04:33:bf:5c:bc:26:65:00:21:13:a2:84:
         02:c7:e2:70:59:b3:a7:1f:9b:aa:58:84:6c:34:30:d3:9f:a6:
         45:f2:ff:d6:06:53:da:da:00:08:b8:e6:2d:86:6b:2e:76:67:
         73:35:d6:ca
-----BEGIN CERTIFICATE REQUEST-----
MIICvDCCAaQCAQAwNTELMAkGA1UEBhMCRlIxEjAQBgNVBAoMCU5vZGVPUENVQTES
MBAGA1UEAwwJTm9kZU9QQ1VBMIIBIjANBgkqhkiG9w0BAQEFAAOCAQ8AMIIBCgKC
AQEAzuWv86R06530NBim0yrIaTDT3ALeFZMFhoG0q73DwfC0WLeppJXgUJy1ZkjU
1/kA05UZuHrQdB6jRGhqQ65VUjvaGlCPbWHbC5Wdywn9J2KqDTLfFNvQ+TicfUK6
2A9H0pEWtk5XX7A+/EeLGsF+IauEUBxuEdYP1zIauBtROgN8TP/RHKMok5c7XNWo
WNqRvxTgS3LVgsjuj/GD/dH6WWAm+32r9stJx2/p/+w9KCW5hhJDNB1Bo1Ijwn6I
HWueDQazUMoNXHWa8jDBPy+g+PCvK2V/dq1Mla2/2rT0gyPQrRl3VkSaZWczP0N0
rJ/Pcx8E6eDIZKIg+PgnHrTZaQIDAQABoEIwQAYJKoZIhvcNAQkOMTMwMTAJBgNV
HRMEAjAAMA4GA1UdDwEB/wQEAwIBBjAUBgNVHREEDTALhgl1bmRlZmluZWQwDQYJ
KoZIhvcNAQELBQADggEBAFlB4uHfeI52qP70d0zTh/PfvSxFw7pbdYuq3fEPqctF
0HJ7MmwNHTcpcV2VYdrXLL2kQz9fQPO5xvE6BjmhGckVyp3bMROyPR3hmq1+pW7f
x+mTb+VzXchxprqBkzpNucPv5Wx6ckWgnX625PDqepANP0h32i8dMBmREN4wzc6R
gLRA5mNZhpq0lxkZkuxieR1MqYM2KKBmB+DN3mZm06ZGlylE4zCzb26Y8ZQD+nbh
Z3nOooZbZE2pfIXNXaTsOS6KaTBn9Rml49HjwQQzv1y8JmUAIROihALH4nBZs6cf
m6pYhGw0MNOfpkXy/9YGU9raAAi45i2Gay52Z3M11so=
-----END CERTIFICATE REQUEST-----
