Certificate:
    Data:
        Version: 3 (0x2)
        Serial Number: 4107 (0x100b)
    Signature Algorithm: sha256WithRSAEncryption
        Issuer: O=NodeOPCUA, CN=NodeOPCUA
        Validity
            Not Before: May 30 08:26:47 2017 GMT
            Not After : May 30 08:26:47 2018 GMT
        Subject: O=NodeOPCUA, CN=NodeOPCUA
        Subject Public Key Info:
            Public Key Algorithm: rsaEncryption
                Public-Key: (2048 bit)
                Modulus:
                    00:ce:e5:af:f3:a4:74:eb:9d:f4:34:18:a6:d3:2a:
                    c8:69:30:d3:dc:02:de:15:93:05:86:81:b4:ab:bd:
                    c3:c1:f0:b4:58:b7:a9:a4:95:e0:50:9c:b5:66:48:
                    d4:d7:f9:00:d3:95:19:b8:7a:d0:74:1e:a3:44:68:
                    6a:43:ae:55:52:3b:da:1a:50:8f:6d:61:db:0b:95:
                    9d:cb:09:fd:27:62:aa:0d:32:df:14:db:d0:f9:38:
                    9c:7d:42:ba:d8:0f:47:d2:91:16:b6:4e:57:5f:b0:
                    3e:fc:47:8b:1a:c1:7e:21:ab:84:50:1c:6e:11:d6:
                    0f:d7:32:1a:b8:1b:51:3a:03:7c:4c:ff:d1:1c:a3:
                    28:93:97:3b:5c:d5:a8:58:da:91:bf:14:e0:4b:72:
                    d5:82:c8:ee:8f:f1:83:fd:d1:fa:59:60:26:fb:7d:
                    ab:f6:cb:49:c7:6f:e9:ff:ec:3d:28:25:b9:86:12:
                    43:34:1d:41:a3:52:23:c2:7e:88:1d:6b:9e:0d:06:
                    b3:50:ca:0d:5c:75:9a:f2:30:c1:3f:2f:a0:f8:f0:
                    af:2b:65:7f:76:ad:4c:95:ad:bf:da:b4:f4:83:23:
                    d0:ad:19:77:56:44:9a:65:67:33:3f:43:74:ac:9f:
                    cf:73:1f:04:e9:e0:c8:64:a2:20:f8:f8:27:1e:b4:
                    d9:69
                Exponent: 65537 (0x10001)
        X509v3 extensions:
            X509v3 Basic Constraints: critical
                CA:FALSE
            X509v3 Subject Key Identifier: 
                9B:E4:A9:FD:73:BC:0C:60:3C:2C:B3:05:42:FE:1C:C3:71:87:82:AC
            X509v3 Authority Key Identifier: 
                keyid:9B:E4:A9:FD:73:BC:0C:60:3C:2C:B3:05:42:FE:1C:C3:71:87:82:AC
                DirName:/O=NodeOPCUA/CN=NodeOPCUA
                serial:10:0B

            X509v3 Subject Alternative Name: 
                URI:urn:NEST-EHUB70.NEST.LOCAL:NodeOPCUA-DiscoveryServer, DNS:localhost, DNS:NEST-EHUB70.NEST.LOCAL
            Netscape Comment: 
                OpenSSL Generated Certificate
            X509v3 Key Usage: critical
                Digital Signature, Non Repudiation, Key Encipherment, Data Encipherment, Key Agreement, Certificate Sign
            X509v3 Extended Key Usage: critical
                TLS Web Server Authentication, TLS Web Client Authentication
    Signature Algorithm: sha256WithRSAEncryption
         cc:27:be:50:9d:4e:b7:2e:90:19:f1:dc:8a:85:d8:b5:51:66:
         f5:8e:36:f6:51:3c:fb:4b:f0:9d:0c:af:6b:95:fc:36:6a:5b:
         9a:11:bc:12:74:e4:88:0c:0c:a8:9e:0b:4e:e7:68:91:66:22:
         37:db:d4:3b:44:cf:60:ed:c3:8e:1b:a1:e1:af:33:45:5c:14:
         b5:19:09:32:78:04:bf:23:c5:26:10:25:b3:1c:5a:f6:76:7d:
         10:4d:23:36:f9:11:bd:fb:33:af:c7:09:05:97:bf:31:d0:7b:
         f8:7c:ff:cc:6a:20:b1:b4:c0:2d:86:68:0e:42:2b:74:65:a0:
         21:fc:de:80:cb:f2:6a:68:14:d7:20:e8:44:51:31:d3:aa:52:
         b9:42:a8:38:ef:d3:f2:ee:6c:70:9b:37:c2:6d:76:cb:12:94:
         ba:ad:98:6c:d2:52:b5:99:7b:ea:6f:69:b3:6c:cf:5c:35:26:
         41:eb:27:6a:c3:35:59:ea:d1:a3:3e:18:f6:0f:bb:2b:f7:1d:
         00:72:29:84:4c:51:f4:a9:2e:3a:84:fc:84:db:f5:e5:0f:a6:
         bc:25:e1:d8:d2:0e:ed:b4:80:1c:a1:46:9b:0a:ef:50:09:20:
         93:a2:8c:f9:99:9e:b0:fe:b6:05:f0:02:bd:5e:e6:de:f1:d1:
         56:75:cd:79
-----BEGIN CERTIFICATE-----
MIIEGjCCAwKgAwIBAgICEAswDQYJKoZIhvcNAQELBQAwKDESMBAGA1UEChMJTm9k
ZU9QQ1VBMRIwEAYDVQQDEwlOb2RlT1BDVUEwIhgPMjAxNzA1MzAwODI2NDdaGA8y
MDE4MDUzMDA4MjY0N1owKDESMBAGA1UEChMJTm9kZU9QQ1VBMRIwEAYDVQQDEwlO
b2RlT1BDVUEwggEiMA0GCSqGSIb3DQEBAQUAA4IBDwAwggEKAoIBAQDO5a/zpHTr
nfQ0GKbTKshpMNPcAt4VkwWGgbSrvcPB8LRYt6mkleBQnLVmSNTX+QDTlRm4etB0
HqNEaGpDrlVSO9oaUI9tYdsLlZ3LCf0nYqoNMt8U29D5OJx9QrrYD0fSkRa2Tldf
sD78R4sawX4hq4RQHG4R1g/XMhq4G1E6A3xM/9EcoyiTlztc1ahY2pG/FOBLctWC
yO6P8YP90fpZYCb7fav2y0nHb+n/7D0oJbmGEkM0HUGjUiPCfogda54NBrNQyg1c
dZryMME/L6D48K8rZX92rUyVrb/atPSDI9CtGXdWRJplZzM/Q3Ssn89zHwTp4Mhk
oiD4+CcetNlpAgMBAAGjggFIMIIBRDAMBgNVHRMBAf8EAjAAMB0GA1UdDgQWBBSb
5Kn9c7wMYDwsswVC/hzDcYeCrDBRBgNVHSMESjBIgBSb5Kn9c7wMYDwsswVC/hzD
cYeCrKEspCowKDESMBAGA1UEChMJTm9kZU9QQ1VBMRIwEAYDVQQDEwlOb2RlT1BD
VUGCAhALMGIGA1UdEQRbMFmGNHVybjpORVNULUVIVUI3MC5ORVNULkxPQ0FMOk5v
ZGVPUENVQS1EaXNjb3ZlcnlTZXJ2ZXKCCWxvY2FsaG9zdIIWTkVTVC1FSFVCNzAu
TkVTVC5MT0NBTDAsBglghkgBhvhCAQ0EHxYdT3BlblNTTCBHZW5lcmF0ZWQgQ2Vy
dGlmaWNhdGUwDgYDVR0PAQH/BAQDAgL8MCAGA1UdJQEB/wQWMBQGCCsGAQUFBwMB
BggrBgEFBQcDAjANBgkqhkiG9w0BAQsFAAOCAQEAzCe+UJ1Oty6QGfHcioXYtVFm
9Y429lE8+0vwnQyva5X8NmpbmhG8EnTkiAwMqJ4LTudokWYiN9vUO0TPYO3Djhuh
4a8zRVwUtRkJMngEvyPFJhAlsxxa9nZ9EE0jNvkRvfszr8cJBZe/MdB7+Hz/zGog
sbTALYZoDkIrdGWgIfzegMvyamgU1yDoRFEx06pSuUKoOO/T8u5scJs3wm12yxKU
uq2YbNJStZl76m9ps2zPXDUmQesnasM1WerRoz4Y9g+7K/cdAHIphExR9KkuOoT8
hNv15Q+mvCXh2NIO7bSAHKFGmwrvUAkgk6KM+ZmesP62BfACvV7m3vHRVnXNeQ==
-----END CERTIFICATE-----
