Certificate:
    Data:
        Version: 3 (0x2)
        Serial Number: 4106 (0x100a)
    Signature Algorithm: sha256WithRSAEncryption
        Issuer: C=FR, ST=IDF, L=Paris, O=Local NODE-OPCUA Certificate Authority, CN=NodeOPCUA-CA
        Validity
            Not Before: May 30 08:26:47 2017 GMT
            Not After : May 30 08:26:47 2018 GMT
        Subject: C=FR, O=NodeOPCUA, CN=NodeOPCUA
        Subject Public Key Info:
            Public Key Algorithm: rsaEncryption
                Public-Key: (2048 bit)
                Modulus:
                    00:ce:e5:af:f3:a4:74:eb:9d:f4:34:18:a6:d3:2a:
                    c8:69:30:d3:dc:02:de:15:93:05:86:81:b4:ab:bd:
                    c3:c1:f0:b4:58:b7:a9:a4:95:e0:50:9c:b5:66:48:
                    d4:d7:f9:00:d3:95:19:b8:7a:d0:74:1e:a3:44:68:
                    6a:43:ae:55:52:3b:da:1a:50:8f:6d:61:db:0b:95:
                    9d:cb:09:fd:27:62:aa:0d:32:df:14:db:d0:f9:38:
                    9c:7d:42:ba:d8:0f:47:d2:91:16:b6:4e:57:5f:b0:
                    3e:fc:47:8b:1a:c1:7e:21:ab:84:50:1c:6e:11:d6:
                    0f:d7:32:1a:b8:1b:51:3a:03:7c:4c:ff:d1:1c:a3:
                    28:93:97:3b:5c:d5:a8:58:da:91:bf:14:e0:4b:72:
                    d5:82:c8:ee:8f:f1:83:fd:d1:fa:59:60:26:fb:7d:
                    ab:f6:cb:49:c7:6f:e9:ff:ec:3d:28:25:b9:86:12:
                    43:34:1d:41:a3:52:23:c2:7e:88:1d:6b:9e:0d:06:
                    b3:50:ca:0d:5c:75:9a:f2:30:c1:3f:2f:a0:f8:f0:
                    af:2b:65:7f:76:ad:4c:95:ad:bf:da:b4:f4:83:23:
                    d0:ad:19:77:56:44:9a:65:67:33:3f:43:74:ac:9f:
                    cf:73:1f:04:e9:e0:c8:64:a2:20:f8:f8:27:1e:b4:
                    d9:69
                Exponent: 65537 (0x10001)
        X509v3 extensions:
            X509v3 Basic Constraints: critical
                CA:FALSE
            X509v3 Subject Key Identifier: 
                9B:E4:A9:FD:73:BC:0C:60:3C:2C:B3:05:42:FE:1C:C3:71:87:82:AC
            X509v3 Authority Key Identifier: 
                keyid:30:4E:E0:91:5D:44:80:6B:93:82:A0:36:81:97:F9:68:A8:2E:CE:A4
                DirName:/C=FR/ST=IDF/L=Paris/O=Local NODE-OPCUA Certificate Authority/CN=NodeOPCUA-CA
                serial:D5:E8:6D:06:08:24:EB:29

            X509v3 Subject Alternative Name: 
                URI:urn:NEST-EHUB70.NEST.LOCAL:NodeOPCUA-DiscoveryServer, DNS:localhost, DNS:NEST-EHUB70.NEST.LOCAL
            Netscape Comment: 
                OpenSSL Generated Certificate
            X509v3 Key Usage: critical
                Digital Signature, Non Repudiation, Key Encipherment, Data Encipherment, Key Agreement, Certificate Sign
            X509v3 Extended Key Usage: critical
                TLS Web Server Authentication, TLS Web Client Authentication
    Signature Algorithm: sha256WithRSAEncryption
         03:67:1f:1b:d9:7a:ee:48:f0:9e:61:e9:7f:a6:27:63:84:cc:
         5d:2c:97:b7:2e:9c:73:ed:7c:4f:ac:01:d7:45:af:bc:e8:93:
         78:21:89:84:03:23:d2:48:58:8d:63:59:c0:a6:6e:f8:fe:e3:
         70:9e:e1:89:26:ac:da:49:34:39:c0:14:a6:4f:11:1d:fe:84:
         36:59:75:66:33:5f:51:c7:35:33:de:8e:b7:13:3e:52:cd:1a:
         95:fa:75:29:fd:39:27:ad:ae:58:42:bf:62:f7:6c:ea:c2:81:
         41:5f:7a:86:a8:81:9f:d9:85:ae:5c:7a:48:70:be:5e:de:0a:
         15:d0:69:f3:3b:96:9c:14:84:6b:4a:cd:87:a4:1e:7c:30:7d:
         41:88:fa:0d:ed:05:a7:78:ad:08:d8:b6:87:31:7f:35:cf:22:
         bd:5e:13:8a:58:b1:c5:ac:5f:92:3f:46:aa:08:82:ca:a0:92:
         65:63:bc:59:5b:b3:ff:5b:bd:42:d8:3e:07:1c:71:aa:d2:08:
         d4:96:f7:70:c2:7d:b0:49:f6:f2:4e:63:8c:f6:94:a0:2c:c6:
         5d:e1:ed:00:17:a3:4c:fe:e6:f2:e6:fd:e0:4f:00:f8:21:80:
         b7:da:ec:94:a5:87:3c:74:34:b4:9e:e2:ca:b7:39:f2:67:88:
         d4:e4:ea:88
-----BEGIN CERTIFICATE-----
MIIExzCCA6+gAwIBAgICEAowDQYJKoZIhvcNAQELBQAwczELMAkGA1UEBhMCRlIx
DDAKBgNVBAgTA0lERjEOMAwGA1UEBxMFUGFyaXMxLzAtBgNVBAoTJkxvY2FsIE5P
REUtT1BDVUEgQ2VydGlmaWNhdGUgQXV0aG9yaXR5MRUwEwYDVQQDEwxOb2RlT1BD
VUEtQ0EwIhgPMjAxNzA1MzAwODI2NDdaGA8yMDE4MDUzMDA4MjY0N1owNTELMAkG
A1UEBhMCRlIxEjAQBgNVBAoMCU5vZGVPUENVQTESMBAGA1UEAwwJTm9kZU9QQ1VB
MIIBIjANBgkqhkiG9w0BAQEFAAOCAQ8AMIIBCgKCAQEAzuWv86R06530NBim0yrI
aTDT3ALeFZMFhoG0q73DwfC0WLeppJXgUJy1ZkjU1/kA05UZuHrQdB6jRGhqQ65V
UjvaGlCPbWHbC5Wdywn9J2KqDTLfFNvQ+TicfUK62A9H0pEWtk5XX7A+/EeLGsF+
IauEUBxuEdYP1zIauBtROgN8TP/RHKMok5c7XNWoWNqRvxTgS3LVgsjuj/GD/dH6
WWAm+32r9stJx2/p/+w9KCW5hhJDNB1Bo1Ijwn6IHWueDQazUMoNXHWa8jDBPy+g
+PCvK2V/dq1Mla2/2rT0gyPQrRl3VkSaZWczP0N0rJ/Pcx8E6eDIZKIg+PgnHrTZ
aQIDAQABo4IBnTCCAZkwDAYDVR0TAQH/BAIwADAdBgNVHQ4EFgQUm+Sp/XO8DGA8
LLMFQv4cw3GHgqwwgaUGA1UdIwSBnTCBmoAUME7gkV1EgGuTgqA2gZf5aKguzqSh
d6R1MHMxCzAJBgNVBAYTAkZSMQwwCgYDVQQIEwNJREYxDjAMBgNVBAcTBVBhcmlz
MS8wLQYDVQQKEyZMb2NhbCBOT0RFLU9QQ1VBIENlcnRpZmljYXRlIEF1dGhvcml0
eTEVMBMGA1UEAxMMTm9kZU9QQ1VBLUNBggkA1ehtBggk6ykwYgYDVR0RBFswWYY0
dXJuOk5FU1QtRUhVQjcwLk5FU1QuTE9DQUw6Tm9kZU9QQ1VBLURpc2NvdmVyeVNl
cnZlcoIJbG9jYWxob3N0ghZORVNULUVIVUI3MC5ORVNULkxPQ0FMMCwGCWCGSAGG
+EIBDQQfFh1PcGVuU1NMIEdlbmVyYXRlZCBDZXJ0aWZpY2F0ZTAOBgNVHQ8BAf8E
BAMCAvwwIAYDVR0lAQH/BBYwFAYIKwYBBQUHAwEGCCsGAQUFBwMCMA0GCSqGSIb3
DQEBCwUAA4IBAQADZx8b2XruSPCeYel/pidjhMxdLJe3Lpxz7XxPrAHXRa+86JN4
IYmEAyPSSFiNY1nApm74/uNwnuGJJqzaSTQ5wBSmTxEd/oQ2WXVmM19RxzUz3o63
Ez5SzRqV+nUp/Tknra5YQr9i92zqwoFBX3qGqIGf2YWuXHpIcL5e3goV0GnzO5ac
FIRrSs2HpB58MH1BiPoN7QWneK0I2LaHMX81zyK9XhOKWLHFrF+SP0aqCILKoJJl
Y7xZW7P/W71C2D4HHHGq0gjUlvdwwn2wSfbyTmOM9pSgLMZd4e0AF6NM/uby5v3g
TwD4IYC32uyUpYc8dDS0nuLKtznyZ4jU5OqI
-----END CERTIFICATE-----
-----BEGIN CERTIFICATE-----
MIIE3TCCA8WgAwIBAgIJANXobQYIJOspMA0GCSqGSIb3DQEBCwUAMHMxCzAJBgNV
BAYTAkZSMQwwCgYDVQQIEwNJREYxDjAMBgNVBAcTBVBhcmlzMS8wLQYDVQQKEyZM
b2NhbCBOT0RFLU9QQ1VBIENlcnRpZmljYXRlIEF1dGhvcml0eTEVMBMGA1UEAxMM
Tm9kZU9QQ1VBLUNBMB4XDTE3MDUzMTA4MjY1MVoXDTI3MDUyOTA4MjY1MVowczEL
MAkGA1UEBhMCRlIxDDAKBgNVBAgTA0lERjEOMAwGA1UEBxMFUGFyaXMxLzAtBgNV
BAoTJkxvY2FsIE5PREUtT1BDVUEgQ2VydGlmaWNhdGUgQXV0aG9yaXR5MRUwEwYD
VQQDEwxOb2RlT1BDVUEtQ0EwggEiMA0GCSqGSIb3DQEBAQUAA4IBDwAwggEKAoIB
AQDDVuKarpo7524C+7t+RA1/lIuOCX4j3yd3omgYZ7M1O50/IrlYwEUue/3QWgn+
4HUA/b3lCrUcxDzKODTJ6REkZmwG7YfR2yzdYHu8DoJQoFpMhYVUk3J5J/fmJS8J
A2Ari2Hv6qqdEgXS1MsEWT+mznt7LsOljDLD8zDYmfKy4XL7GHA/XrJhk/km7nYB
7vAKeSw8nJn7PGq0iKoipW3Gf3JEgU0pxtXVSm6N/P/8lkKm8nDMXoiT9+B/9FJ2
zzzZi4+ioUCG92NJ8EmLWHWOVy4vIlov9TvBh8SvV/ZdGRrQCz8vQ3ie5qM1yapZ
RTy8mcduoNDBTFDW03/w1g+PAgMBAAGjggFyMIIBbjAdBgNVHQ4EFgQUME7gkV1E
gGuTgqA2gZf5aKguzqQwgaUGA1UdIwSBnTCBmoAUME7gkV1EgGuTgqA2gZf5aKgu
zqShd6R1MHMxCzAJBgNVBAYTAkZSMQwwCgYDVQQIEwNJREYxDjAMBgNVBAcTBVBh
cmlzMS8wLQYDVQQKEyZMb2NhbCBOT0RFLU9QQ1VBIENlcnRpZmljYXRlIEF1dGhv
cml0eTEVMBMGA1UEAxMMTm9kZU9QQ1VBLUNBggkA1ehtBggk6ykwDAYDVR0TBAUw
AwEB/zAOBgNVHQ8BAf8EBAMCAQYwVwYJYIZIAYb4QgENBEoWSENBIENlcnRpZmlj
YXRlIGdlbmVyYXRlZCBieSBOb2RlLU9QQ1VBIENlcnRpZmljYXRlIHV0aWxpdHkg
dXNpbmcgb3BlbnNzbDAuBgNVHR8EJzAlMCOgIaAfhh1odHRwOi8vbG9jYWxob3N0
Ojg5MDAvY3JsLnBlbTANBgkqhkiG9w0BAQsFAAOCAQEAArPjCJ0zmKimkKLHTKbJ
2qXFeUy0IyhTkWO1C+dhB0YCeefjMIjmOkJf/Mgy53D9Ze3QCFSrWKKfjBjznUKf
RUw1WIzjy0jlsLvZueGrcZMaD18L8+HKl3LYdsa/D+mbjvBBgW0BgC54TdylgLh3
W34rArioZIpKzGwTA5vClon+saFWhQk3OZXgESxTcoPfNgbUxGDDnD67yVnr/lxB
iHXdaVsqkO7v5oZLy9Wfj+UjNgaI39xDI9NdNjZPlq7FPrmVF+nMhp6+euRYskbd
iYH7RW/mCa7vNdI6A2+Y6hIcfF9VLCXLE/Gr47Av1e61TbYDOFgTqBHnhudxYyNJ
dA==
-----END CERTIFICATE-----
