Certificate Request:
    Data:
        Version: 0 (0x0)
        Subject: C=FR, O=NodeOPCUA, CN=NodeOPCUA
        Subject Public Key Info:
            Public Key Algorithm: rsaEncryption
                Public-Key: (2048 bit)
                Modulus:
                    00:db:8c:a9:39:3a:5e:32:49:4b:99:d6:ad:f7:11:
                    c2:4a:d7:8c:03:f8:67:5b:29:20:03:d5:04:1b:97:
                    72:14:69:d4:ce:e5:67:85:87:ff:5f:00:65:25:d3:
                    d2:0c:12:f3:6f:dd:88:dc:8a:20:ca:cd:d1:82:a0:
                    cc:85:1f:34:a5:e7:07:d6:22:2a:dc:ce:8c:ef:81:
                    38:49:db:8e:61:98:81:86:ed:d0:db:17:32:da:78:
                    e5:68:aa:72:ea:45:08:19:84:05:de:08:95:ab:e8:
                    79:9d:4e:2a:0f:2e:a8:d1:75:b8:e5:0f:22:94:85:
                    6d:bd:c8:5f:a3:09:af:8f:b7:18:43:25:61:9f:cf:
                    f6:3c:b4:50:ab:c4:b2:68:b0:e8:85:c1:64:90:9d:
                    3c:89:48:f9:ae:da:4e:56:88:a2:b9:f6:85:9c:87:
                    d9:ea:84:85:6d:48:be:2a:83:1b:03:6e:4c:b7:e3:
                    4d:30:76:2a:7a:ea:75:7d:b6:61:8a:6b:63:2f:c1:
                    10:28:b7:e6:14:db:d0:e1:de:47:d8:25:91:0c:3a:
                    16:7b:cb:15:03:91:91:b3:60:5c:1f:5b:0b:86:ba:
                    b7:2d:84:19:a2:b4:c3:d4:51:9a:a5:c0:2e:ba:a5:
                    14:7f:cb:71:d6:80:7a:84:50:6c:01:65:81:14:aa:
                    4f:19
                Exponent: 65537 (0x10001)
        Attributes:
        Requested Extensions:
            X509v3 Basic Constraints: 
                CA:FALSE
            X509v3 Key Usage: critical
                Certificate Sign, CRL Sign
            X509v3 Subject Alternative Name: 
                URI:undefined
    Signature Algorithm: sha256WithRSAEncryption
         db:5e:85:2b:d8:f5:c8:78:63:87:ab:b1:b3:bc:9c:00:df:5c:
         a8:c4:50:4e:e5:75:f2:a3:28:b8:49:35:8c:cd:73:fe:be:45:
         1b:06:81:c9:28:ce:f5:c8:0d:dd:8a:80:39:dd:50:33:06:33:
         aa:67:74:a7:b6:4a:f7:f5:99:66:ec:d9:2e:94:2a:fc:c5:e6:
         92:5e:01:30:3b:80:33:96:07:d3:8e:ca:2f:ea:9e:e0:7e:d9:
         cf:fc:1f:3d:6a:4c:38:aa:3f:42:4a:3f:a1:ba:de:b2:3f:d4:
         28:8d:bf:01:94:f4:ce:43:1a:f2:12:06:c5:63:3e:88:b0:3f:
         7b:14:f0:ed:9f:a7:d6:5a:49:1e:8a:b9:cc:88:36:25:85:da:
         5d:57:53:dd:8c:3e:8a:b7:25:58:7e:21:32:99:13:8c:4b:d3:
         dc:c1:6c:d3:a7:03:71:89:85:ae:8a:97:46:6c:9d:75:0c:34:
         8a:5d:2a:88:49:20:7a:47:58:1b:83:ef:68:ba:f5:aa:c8:b7:
         a5:91:c7:8b:e6:50:e1:77:27:56:68:80:a9:4f:cd:3c:fb:62:
         f8:75:a1:8c:41:dd:8b:7c:16:f5:09:49:22:a6:68:60:90:69:
         27:d3:b5:49:02:3e:5c:ad:d4:71:bc:e5:1c:24:9c:8c:2d:09:
         01:f1:2b:e1
-----BEGIN CERTIFICATE REQUEST-----
MIICvDCCAaQCAQAwNTELMAkGA1UEBhMCRlIxEjAQBgNVBAoMCU5vZGVPUENVQTES
MBAGA1UEAwwJTm9kZU9QQ1VBMIIBIjANBgkqhkiG9w0BAQEFAAOCAQ8AMIIBCgKC
AQEA24ypOTpeMklLmdat9xHCSteMA/hnWykgA9UEG5dyFGnUzuVnhYf/XwBlJdPS
DBLzb92I3Iogys3RgqDMhR80pecH1iIq3M6M74E4SduOYZiBhu3Q2xcy2njlaKpy
6kUIGYQF3giVq+h5nU4qDy6o0XW45Q8ilIVtvchfowmvj7cYQyVhn8/2PLRQq8Sy
aLDohcFkkJ08iUj5rtpOVoiiufaFnIfZ6oSFbUi+KoMbA25Mt+NNMHYqeup1fbZh
imtjL8EQKLfmFNvQ4d5H2CWRDDoWe8sVA5GRs2BcH1sLhrq3LYQZorTD1FGapcAu
uqUUf8tx1oB6hFBsAWWBFKpPGQIDAQABoEIwQAYJKoZIhvcNAQkOMTMwMTAJBgNV
HRMEAjAAMA4GA1UdDwEB/wQEAwIBBjAUBgNVHREEDTALhgl1bmRlZmluZWQwDQYJ
KoZIhvcNAQELBQADggEBANtehSvY9ch4Y4ersbO8nADfXKjEUE7ldfKjKLhJNYzN
c/6+RRsGgckozvXIDd2KgDndUDMGM6pndKe2Svf1mWbs2S6UKvzF5pJeATA7gDOW
B9OOyi/qnuB+2c/8Hz1qTDiqP0JKP6G63rI/1CiNvwGU9M5DGvISBsVjPoiwP3sU
8O2fp9ZaSR6KucyINiWF2l1XU92MPoq3JVh+ITKZE4xL09zBbNOnA3GJha6Kl0Zs
nXUMNIpdKohJIHpHWBuD72i69arIt6WRx4vmUOF3J1ZogKlPzTz7Yvh1oYxB3Yt8
FvUJSSKmaGCQaSfTtUkCPlyt1HG85RwknIwtCQHxK+E=
-----END CERTIFICATE REQUEST-----
