Certificate:
    Data:
        Version: 3 (0x2)
        Serial Number: 4102 (0x1006)
    Signature Algorithm: sha256WithRSAEncryption
        Issuer: C=FR, ST=IDF, L=Paris, O=Local NODE-OPCUA Certificate Authority, CN=NodeOPCUA-CA
        Validity
            Not Before: May 30 08:26:47 2017 GMT
            Not After : May 30 08:26:47 2018 GMT
        Subject: C=FR, O=NodeOPCUA, CN=NodeOPCUA
        Subject Public Key Info:
            Public Key Algorithm: rsaEncryption
                Public-Key: (2048 bit)
                Modulus:
                    00:db:8c:a9:39:3a:5e:32:49:4b:99:d6:ad:f7:11:
                    c2:4a:d7:8c:03:f8:67:5b:29:20:03:d5:04:1b:97:
                    72:14:69:d4:ce:e5:67:85:87:ff:5f:00:65:25:d3:
                    d2:0c:12:f3:6f:dd:88:dc:8a:20:ca:cd:d1:82:a0:
                    cc:85:1f:34:a5:e7:07:d6:22:2a:dc:ce:8c:ef:81:
                    38:49:db:8e:61:98:81:86:ed:d0:db:17:32:da:78:
                    e5:68:aa:72:ea:45:08:19:84:05:de:08:95:ab:e8:
                    79:9d:4e:2a:0f:2e:a8:d1:75:b8:e5:0f:22:94:85:
                    6d:bd:c8:5f:a3:09:af:8f:b7:18:43:25:61:9f:cf:
                    f6:3c:b4:50:ab:c4:b2:68:b0:e8:85:c1:64:90:9d:
                    3c:89:48:f9:ae:da:4e:56:88:a2:b9:f6:85:9c:87:
                    d9:ea:84:85:6d:48:be:2a:83:1b:03:6e:4c:b7:e3:
                    4d:30:76:2a:7a:ea:75:7d:b6:61:8a:6b:63:2f:c1:
                    10:28:b7:e6:14:db:d0:e1:de:47:d8:25:91:0c:3a:
                    16:7b:cb:15:03:91:91:b3:60:5c:1f:5b:0b:86:ba:
                    b7:2d:84:19:a2:b4:c3:d4:51:9a:a5:c0:2e:ba:a5:
                    14:7f:cb:71:d6:80:7a:84:50:6c:01:65:81:14:aa:
                    4f:19
                Exponent: 65537 (0x10001)
        X509v3 extensions:
            X509v3 Basic Constraints: critical
                CA:FALSE
            X509v3 Subject Key Identifier: 
                18:C0:D9:62:1A:0F:8C:CA:81:E6:42:93:2F:DC:64:DC:4B:47:DC:28
            X509v3 Authority Key Identifier: 
                keyid:30:4E:E0:91:5D:44:80:6B:93:82:A0:36:81:97:F9:68:A8:2E:CE:A4
                DirName:/C=FR/ST=IDF/L=Paris/O=Local NODE-OPCUA Certificate Authority/CN=NodeOPCUA-CA
                serial:D5:E8:6D:06:08:24:EB:29

            X509v3 Subject Alternative Name: 
                URI:urn:NEST-EHUB70.NEST.LOCAL:NodeOPCUA-Server, DNS:localhost, DNS:NEST-EHUB70.NEST.LOCAL
            Netscape Comment: 
                OpenSSL Generated Certificate
            X509v3 Key Usage: critical
                Digital Signature, Non Repudiation, Key Encipherment, Data Encipherment, Key Agreement, Certificate Sign
            X509v3 Extended Key Usage: critical
                TLS Web Server Authentication, TLS Web Client Authentication
    Signature Algorithm: sha256WithRSAEncryption
         82:2b:bf:51:fd:22:04:af:84:80:cb:b1:59:2d:33:d0:35:3c:
         a5:59:e5:cd:51:01:c6:04:ba:b9:ce:23:ae:c3:6f:da:d4:22:
         9e:98:95:5a:03:a3:58:db:68:c8:c2:a9:23:66:86:bb:09:cf:
         e7:e9:12:29:83:e0:2e:42:3e:f8:b2:a3:5d:1f:6e:d0:3d:17:
         69:03:49:92:ae:13:9d:66:2d:cc:48:99:96:11:bd:4e:5a:b3:
         b9:0b:c6:fa:58:e0:c4:df:9a:da:c4:72:a9:92:27:9a:1b:68:
         d6:1f:9a:58:0d:5f:9a:b4:c4:6b:87:10:5f:31:96:85:51:02:
         db:74:87:98:f8:3b:11:4c:5e:45:59:f1:06:79:ee:58:af:49:
         83:d7:7f:a4:ae:3a:86:61:86:3f:bd:7d:e3:ab:d3:bd:e0:db:
         e3:11:48:20:af:c3:e6:4e:db:85:00:c3:0a:f9:32:dc:b0:b9:
         89:66:08:e4:4a:8d:b5:f9:8a:44:2e:47:bf:75:cb:20:9e:99:
         de:ad:14:b9:1d:3e:12:5a:53:9f:65:93:ff:f7:cc:2d:12:16:
         d1:c3:c7:df:3d:d7:15:11:21:66:38:39:df:6e:96:9a:14:f3:
         9a:d8:a3:44:53:a1:44:3f:cd:94:7a:5c:01:d9:fc:09:65:db:
         54:95:25:cf
-----BEGIN CERTIFICATE-----
MIIEvjCCA6agAwIBAgICEAYwDQYJKoZIhvcNAQELBQAwczELMAkGA1UEBhMCRlIx
DDAKBgNVBAgTA0lERjEOMAwGA1UEBxMFUGFyaXMxLzAtBgNVBAoTJkxvY2FsIE5P
REUtT1BDVUEgQ2VydGlmaWNhdGUgQXV0aG9yaXR5MRUwEwYDVQQDEwxOb2RlT1BD
VUEtQ0EwIhgPMjAxNzA1MzAwODI2NDdaGA8yMDE4MDUzMDA4MjY0N1owNTELMAkG
A1UEBhMCRlIxEjAQBgNVBAoMCU5vZGVPUENVQTESMBAGA1UEAwwJTm9kZU9QQ1VB
MIIBIjANBgkqhkiG9w0BAQEFAAOCAQ8AMIIBCgKCAQEA24ypOTpeMklLmdat9xHC
SteMA/hnWykgA9UEG5dyFGnUzuVnhYf/XwBlJdPSDBLzb92I3Iogys3RgqDMhR80
pecH1iIq3M6M74E4SduOYZiBhu3Q2xcy2njlaKpy6kUIGYQF3giVq+h5nU4qDy6o
0XW45Q8ilIVtvchfowmvj7cYQyVhn8/2PLRQq8SyaLDohcFkkJ08iUj5rtpOVoii
ufaFnIfZ6oSFbUi+KoMbA25Mt+NNMHYqeup1fbZhimtjL8EQKLfmFNvQ4d5H2CWR
DDoWe8sVA5GRs2BcH1sLhrq3LYQZorTD1FGapcAuuqUUf8tx1oB6hFBsAWWBFKpP
GQIDAQABo4IBlDCCAZAwDAYDVR0TAQH/BAIwADAdBgNVHQ4EFgQUGMDZYhoPjMqB
5kKTL9xk3EtH3CgwgaUGA1UdIwSBnTCBmoAUME7gkV1EgGuTgqA2gZf5aKguzqSh
d6R1MHMxCzAJBgNVBAYTAkZSMQwwCgYDVQQIEwNJREYxDjAMBgNVBAcTBVBhcmlz
MS8wLQYDVQQKEyZMb2NhbCBOT0RFLU9QQ1VBIENlcnRpZmljYXRlIEF1dGhvcml0
eTEVMBMGA1UEAxMMTm9kZU9QQ1VBLUNBggkA1ehtBggk6ykwWQYDVR0RBFIwUIYr
dXJuOk5FU1QtRUhVQjcwLk5FU1QuTE9DQUw6Tm9kZU9QQ1VBLVNlcnZlcoIJbG9j
YWxob3N0ghZORVNULUVIVUI3MC5ORVNULkxPQ0FMMCwGCWCGSAGG+EIBDQQfFh1P
cGVuU1NMIEdlbmVyYXRlZCBDZXJ0aWZpY2F0ZTAOBgNVHQ8BAf8EBAMCAvwwIAYD
VR0lAQH/BBYwFAYIKwYBBQUHAwEGCCsGAQUFBwMCMA0GCSqGSIb3DQEBCwUAA4IB
AQCCK79R/SIEr4SAy7FZLTPQNTylWeXNUQHGBLq5ziOuw2/a1CKemJVaA6NY22jI
wqkjZoa7Cc/n6RIpg+AuQj74sqNdH27QPRdpA0mSrhOdZi3MSJmWEb1OWrO5C8b6
WODE35raxHKpkieaG2jWH5pYDV+atMRrhxBfMZaFUQLbdIeY+DsRTF5FWfEGee5Y
r0mD13+krjqGYYY/vX3jq9O94NvjEUggr8PmTtuFAMMK+TLcsLmJZgjkSo21+YpE
Lke/dcsgnpnerRS5HT4SWlOfZZP/98wtEhbRw8ffPdcVESFmODnfbpaaFPOa2KNE
U6FEP82UelwB2fwJZdtUlSXP
-----END CERTIFICATE-----
-----BEGIN CERTIFICATE-----
MIIE3TCCA8WgAwIBAgIJANXobQYIJOspMA0GCSqGSIb3DQEBCwUAMHMxCzAJBgNV
BAYTAkZSMQwwCgYDVQQIEwNJREYxDjAMBgNVBAcTBVBhcmlzMS8wLQYDVQQKEyZM
b2NhbCBOT0RFLU9QQ1VBIENlcnRpZmljYXRlIEF1dGhvcml0eTEVMBMGA1UEAxMM
Tm9kZU9QQ1VBLUNBMB4XDTE3MDUzMTA4MjY1MVoXDTI3MDUyOTA4MjY1MVowczEL
MAkGA1UEBhMCRlIxDDAKBgNVBAgTA0lERjEOMAwGA1UEBxMFUGFyaXMxLzAtBgNV
BAoTJkxvY2FsIE5PREUtT1BDVUEgQ2VydGlmaWNhdGUgQXV0aG9yaXR5MRUwEwYD
VQQDEwxOb2RlT1BDVUEtQ0EwggEiMA0GCSqGSIb3DQEBAQUAA4IBDwAwggEKAoIB
AQDDVuKarpo7524C+7t+RA1/lIuOCX4j3yd3omgYZ7M1O50/IrlYwEUue/3QWgn+
4HUA/b3lCrUcxDzKODTJ6REkZmwG7YfR2yzdYHu8DoJQoFpMhYVUk3J5J/fmJS8J
A2Ari2Hv6qqdEgXS1MsEWT+mznt7LsOljDLD8zDYmfKy4XL7GHA/XrJhk/km7nYB
7vAKeSw8nJn7PGq0iKoipW3Gf3JEgU0pxtXVSm6N/P/8lkKm8nDMXoiT9+B/9FJ2
zzzZi4+ioUCG92NJ8EmLWHWOVy4vIlov9TvBh8SvV/ZdGRrQCz8vQ3ie5qM1yapZ
RTy8mcduoNDBTFDW03/w1g+PAgMBAAGjggFyMIIBbjAdBgNVHQ4EFgQUME7gkV1E
gGuTgqA2gZf5aKguzqQwgaUGA1UdIwSBnTCBmoAUME7gkV1EgGuTgqA2gZf5aKgu
zqShd6R1MHMxCzAJBgNVBAYTAkZSMQwwCgYDVQQIEwNJREYxDjAMBgNVBAcTBVBh
cmlzMS8wLQYDVQQKEyZMb2NhbCBOT0RFLU9QQ1VBIENlcnRpZmljYXRlIEF1dGhv
cml0eTEVMBMGA1UEAxMMTm9kZU9QQ1VBLUNBggkA1ehtBggk6ykwDAYDVR0TBAUw
AwEB/zAOBgNVHQ8BAf8EBAMCAQYwVwYJYIZIAYb4QgENBEoWSENBIENlcnRpZmlj
YXRlIGdlbmVyYXRlZCBieSBOb2RlLU9QQ1VBIENlcnRpZmljYXRlIHV0aWxpdHkg
dXNpbmcgb3BlbnNzbDAuBgNVHR8EJzAlMCOgIaAfhh1odHRwOi8vbG9jYWxob3N0
Ojg5MDAvY3JsLnBlbTANBgkqhkiG9w0BAQsFAAOCAQEAArPjCJ0zmKimkKLHTKbJ
2qXFeUy0IyhTkWO1C+dhB0YCeefjMIjmOkJf/Mgy53D9Ze3QCFSrWKKfjBjznUKf
RUw1WIzjy0jlsLvZueGrcZMaD18L8+HKl3LYdsa/D+mbjvBBgW0BgC54TdylgLh3
W34rArioZIpKzGwTA5vClon+saFWhQk3OZXgESxTcoPfNgbUxGDDnD67yVnr/lxB
iHXdaVsqkO7v5oZLy9Wfj+UjNgaI39xDI9NdNjZPlq7FPrmVF+nMhp6+euRYskbd
iYH7RW/mCa7vNdI6A2+Y6hIcfF9VLCXLE/Gr47Av1e61TbYDOFgTqBHnhudxYyNJ
dA==
-----END CERTIFICATE-----
