Certificate Request:
    Data:
        Version: 0 (0x0)
        Subject: C=FR, O=NodeOPCUA, CN=NodeOPCUA
        Subject Public Key Info:
            Public Key Algorithm: rsaEncryption
                Public-Key: (1024 bit)
                Modulus:
                    00:a7:f7:13:e9:93:eb:5b:aa:3e:24:61:68:0e:73:
                    00:86:16:ca:91:24:cf:f3:1e:5d:5c:56:b1:6f:21:
                    21:28:2f:9d:89:d1:4f:fa:2b:8d:63:1b:31:4d:b0:
                    d2:e8:f5:bd:27:84:ce:5f:cb:3c:ba:3c:48:82:b4:
                    ea:93:f5:cc:1f:95:e1:8c:fa:2e:b8:93:cc:f7:06:
                    ab:97:7e:f3:6a:9b:df:c5:c8:79:d6:03:53:ee:8d:
                    0c:33:c2:81:05:c5:c3:1b:2f:a7:55:49:e0:84:4d:
                    23:43:3f:b7:05:fd:99:b0:c5:0d:ad:77:55:fd:81:
                    40:d6:eb:e8:75:5b:46:67:db
                Exponent: 65537 (0x10001)
        Attributes:
        Requested Extensions:
            X509v3 Basic Constraints: 
                CA:FALSE
            X509v3 Key Usage: critical
                Certificate Sign, CRL Sign
            X509v3 Subject Alternative Name: 
                URI:undefined
    Signature Algorithm: sha256WithRSAEncryption
         1b:1e:8d:d1:d9:2f:58:0d:f0:a4:21:73:f5:db:71:a2:c4:65:
         98:15:68:32:87:89:95:2c:d8:29:39:5f:85:44:33:be:51:77:
         88:22:e7:f3:a2:60:11:3e:3e:61:33:78:e6:1f:e2:4d:0a:f4:
         8e:2a:5a:01:ca:fb:d3:51:42:e7:88:4a:03:cc:ab:c1:19:cb:
         2e:73:b4:74:20:b8:47:f1:a0:08:a0:9d:12:d2:34:58:92:66:
         4e:c7:26:bf:d2:45:0f:c1:e4:7c:60:69:93:ec:22:57:75:6c:
         c4:df:0e:bb:fd:9f:7c:23:8b:1a:14:82:ef:1b:65:67:6d:51:
         f3:8f
-----BEGIN CERTIFICATE REQUEST-----
MIIBtzCCASACAQAwNTELMAkGA1UEBhMCRlIxEjAQBgNVBAoMCU5vZGVPUENVQTES
MBAGA1UEAwwJTm9kZU9QQ1VBMIGfMA0GCSqGSIb3DQEBAQUAA4GNADCBiQKBgQCn
9xPpk+tbqj4kYWgOcwCGFsqRJM/zHl1cVrFvISEoL52J0U/6K41jGzFNsNLo9b0n
hM5fyzy6PEiCtOqT9cwfleGM+i64k8z3BquXfvNqm9/FyHnWA1PujQwzwoEFxcMb
L6dVSeCETSNDP7cF/ZmwxQ2td1X9gUDW6+h1W0Zn2wIDAQABoEIwQAYJKoZIhvcN
AQkOMTMwMTAJBgNVHRMEAjAAMA4GA1UdDwEB/wQEAwIBBjAUBgNVHREEDTALhgl1
bmRlZmluZWQwDQYJKoZIhvcNAQELBQADgYEAGx6N0dkvWA3wpCFz9dtxosRlmBVo
MoeJlSzYKTlfhUQzvlF3iCLn86JgET4+YTN45h/iTQr0jipaAcr701FC54hKA8yr
wRnLLnO0dCC4R/GgCKCdEtI0WJJmTscmv9JFD8HkfGBpk+wiV3VsxN8Ou/2ffCOL
GhSC7xtlZ21R848=
-----END CERTIFICATE REQUEST-----
