Certificate:
    Data:
        Version: 3 (0x2)
        Serial Number: 4100 (0x1004)
    Signature Algorithm: sha256WithRSAEncryption
        Issuer: C=FR, ST=IDF, L=Paris, O=Local NODE-OPCUA Certificate Authority, CN=NodeOPCUA-CA
        Validity
            Not Before: May 30 08:26:47 2017 GMT
            Not After : May 30 08:26:47 2018 GMT
        Subject: C=FR, O=NodeOPCUA, CN=NodeOPCUA
        Subject Public Key Info:
            Public Key Algorithm: rsaEncryption
                Public-Key: (1024 bit)
                Modulus:
                    00:a7:f7:13:e9:93:eb:5b:aa:3e:24:61:68:0e:73:
                    00:86:16:ca:91:24:cf:f3:1e:5d:5c:56:b1:6f:21:
                    21:28:2f:9d:89:d1:4f:fa:2b:8d:63:1b:31:4d:b0:
                    d2:e8:f5:bd:27:84:ce:5f:cb:3c:ba:3c:48:82:b4:
                    ea:93:f5:cc:1f:95:e1:8c:fa:2e:b8:93:cc:f7:06:
                    ab:97:7e:f3:6a:9b:df:c5:c8:79:d6:03:53:ee:8d:
                    0c:33:c2:81:05:c5:c3:1b:2f:a7:55:49:e0:84:4d:
                    23:43:3f:b7:05:fd:99:b0:c5:0d:ad:77:55:fd:81:
                    40:d6:eb:e8:75:5b:46:67:db
                Exponent: 65537 (0x10001)
        X509v3 extensions:
            X509v3 Basic Constraints: critical
                CA:FALSE
            X509v3 Subject Key Identifier: 
                7B:74:DF:8C:D0:11:5E:0A:A4:05:18:B7:A2:45:8B:41:64:BA:6D:DA
            X509v3 Authority Key Identifier: 
                keyid:30:4E:E0:91:5D:44:80:6B:93:82:A0:36:81:97:F9:68:A8:2E:CE:A4
                DirName:/C=FR/ST=IDF/L=Paris/O=Local NODE-OPCUA Certificate Authority/CN=NodeOPCUA-CA
                serial:D5:E8:6D:06:08:24:EB:29

            X509v3 Subject Alternative Name: 
                URI:urn:NEST-EHUB70.NEST.LOCAL:NodeOPCUA-Server, DNS:localhost, DNS:NEST-EHUB70.NEST.LOCAL
            Netscape Comment: 
                OpenSSL Generated Certificate
            X509v3 Key Usage: critical
                Digital Signature, Non Repudiation, Key Encipherment, Data Encipherment, Key Agreement, Certificate Sign
            X509v3 Extended Key Usage: critical
                TLS Web Server Authentication, TLS Web Client Authentication
    Signature Algorithm: sha256WithRSAEncryption
         a6:8c:e2:71:06:86:0f:55:3e:f6:af:19:a5:73:d7:bd:28:62:
         ba:71:d3:11:0c:d4:d9:fa:d4:4f:04:61:21:b0:f6:10:50:e4:
         9d:6f:30:97:22:46:35:fe:01:7d:f5:cd:7a:c7:e3:78:cf:cf:
         ba:8a:14:da:dc:9e:9c:a2:cb:0b:b7:90:1d:13:0b:3e:04:e6:
         4e:2c:8d:32:af:3b:dd:e3:14:cc:28:ed:06:ea:44:5c:a0:15:
         d8:85:4d:eb:0d:b5:9a:49:ed:3a:c7:25:19:b5:91:e0:4a:ba:
         53:21:b6:64:a5:70:7c:4f:27:5c:74:21:4a:51:2d:8b:ff:26:
         8f:8b:c0:84:77:53:85:f3:45:29:ca:fb:16:d9:72:81:11:b7:
         09:fa:4d:59:63:25:f8:ce:a5:af:2c:95:0f:86:71:b0:53:0e:
         d9:4f:c8:21:f7:b7:c8:d4:f8:31:12:6e:2d:04:17:ad:f8:2a:
         c2:34:f9:60:18:69:ca:c3:74:ad:84:58:24:fd:9e:55:41:35:
         2a:c8:83:37:dd:20:13:8f:83:10:e6:bd:31:92:8a:5f:37:57:
         a3:aa:91:30:85:1b:e3:84:0d:f7:f2:20:70:3c:dc:e2:7e:8c:
         9a:a6:c5:15:f2:25:17:f8:6e:59:76:06:31:a4:81:b8:f1:cc:
         3d:da:23:90
-----BEGIN CERTIFICATE-----
MIIEOjCCAyKgAwIBAgICEAQwDQYJKoZIhvcNAQELBQAwczELMAkGA1UEBhMCRlIx
DDAKBgNVBAgTA0lERjEOMAwGA1UEBxMFUGFyaXMxLzAtBgNVBAoTJkxvY2FsIE5P
REUtT1BDVUEgQ2VydGlmaWNhdGUgQXV0aG9yaXR5MRUwEwYDVQQDEwxOb2RlT1BD
VUEtQ0EwIhgPMjAxNzA1MzAwODI2NDdaGA8yMDE4MDUzMDA4MjY0N1owNTELMAkG
A1UEBhMCRlIxEjAQBgNVBAoMCU5vZGVPUENVQTESMBAGA1UEAwwJTm9kZU9QQ1VB
MIGfMA0GCSqGSIb3DQEBAQUAA4GNADCBiQKBgQCn9xPpk+tbqj4kYWgOcwCGFsqR
JM/zHl1cVrFvISEoL52J0U/6K41jGzFNsNLo9b0nhM5fyzy6PEiCtOqT9cwfleGM
+i64k8z3BquXfvNqm9/FyHnWA1PujQwzwoEFxcMbL6dVSeCETSNDP7cF/ZmwxQ2t
d1X9gUDW6+h1W0Zn2wIDAQABo4IBlDCCAZAwDAYDVR0TAQH/BAIwADAdBgNVHQ4E
FgQUe3TfjNARXgqkBRi3okWLQWS6bdowgaUGA1UdIwSBnTCBmoAUME7gkV1EgGuT
gqA2gZf5aKguzqShd6R1MHMxCzAJBgNVBAYTAkZSMQwwCgYDVQQIEwNJREYxDjAM
BgNVBAcTBVBhcmlzMS8wLQYDVQQKEyZMb2NhbCBOT0RFLU9QQ1VBIENlcnRpZmlj
YXRlIEF1dGhvcml0eTEVMBMGA1UEAxMMTm9kZU9QQ1VBLUNBggkA1ehtBggk6ykw
WQYDVR0RBFIwUIYrdXJuOk5FU1QtRUhVQjcwLk5FU1QuTE9DQUw6Tm9kZU9QQ1VB
LVNlcnZlcoIJbG9jYWxob3N0ghZORVNULUVIVUI3MC5ORVNULkxPQ0FMMCwGCWCG
SAGG+EIBDQQfFh1PcGVuU1NMIEdlbmVyYXRlZCBDZXJ0aWZpY2F0ZTAOBgNVHQ8B
Af8EBAMCAvwwIAYDVR0lAQH/BBYwFAYIKwYBBQUHAwEGCCsGAQUFBwMCMA0GCSqG
SIb3DQEBCwUAA4IBAQCmjOJxBoYPVT72rxmlc9e9KGK6cdMRDNTZ+tRPBGEhsPYQ
UOSdbzCXIkY1/gF99c16x+N4z8+6ihTa3J6cossLt5AdEws+BOZOLI0yrzvd4xTM
KO0G6kRcoBXYhU3rDbWaSe06xyUZtZHgSrpTIbZkpXB8TydcdCFKUS2L/yaPi8CE
d1OF80UpyvsW2XKBEbcJ+k1ZYyX4zqWvLJUPhnGwUw7ZT8gh97fI1PgxEm4tBBet
+CrCNPlgGGnKw3SthFgk/Z5VQTUqyIM33SATj4MQ5r0xkopfN1ejqpEwhRvjhA33
8iBwPNzifoyapsUV8iUX+G5ZdgYxpIG48cw92iOQ
-----END CERTIFICATE-----
-----BEGIN CERTIFICATE-----
MIIE3TCCA8WgAwIBAgIJANXobQYIJOspMA0GCSqGSIb3DQEBCwUAMHMxCzAJBgNV
BAYTAkZSMQwwCgYDVQQIEwNJREYxDjAMBgNVBAcTBVBhcmlzMS8wLQYDVQQKEyZM
b2NhbCBOT0RFLU9QQ1VBIENlcnRpZmljYXRlIEF1dGhvcml0eTEVMBMGA1UEAxMM
Tm9kZU9QQ1VBLUNBMB4XDTE3MDUzMTA4MjY1MVoXDTI3MDUyOTA4MjY1MVowczEL
MAkGA1UEBhMCRlIxDDAKBgNVBAgTA0lERjEOMAwGA1UEBxMFUGFyaXMxLzAtBgNV
BAoTJkxvY2FsIE5PREUtT1BDVUEgQ2VydGlmaWNhdGUgQXV0aG9yaXR5MRUwEwYD
VQQDEwxOb2RlT1BDVUEtQ0EwggEiMA0GCSqGSIb3DQEBAQUAA4IBDwAwggEKAoIB
AQDDVuKarpo7524C+7t+RA1/lIuOCX4j3yd3omgYZ7M1O50/IrlYwEUue/3QWgn+
4HUA/b3lCrUcxDzKODTJ6REkZmwG7YfR2yzdYHu8DoJQoFpMhYVUk3J5J/fmJS8J
A2Ari2Hv6qqdEgXS1MsEWT+mznt7LsOljDLD8zDYmfKy4XL7GHA/XrJhk/km7nYB
7vAKeSw8nJn7PGq0iKoipW3Gf3JEgU0pxtXVSm6N/P/8lkKm8nDMXoiT9+B/9FJ2
zzzZi4+ioUCG92NJ8EmLWHWOVy4vIlov9TvBh8SvV/ZdGRrQCz8vQ3ie5qM1yapZ
RTy8mcduoNDBTFDW03/w1g+PAgMBAAGjggFyMIIBbjAdBgNVHQ4EFgQUME7gkV1E
gGuTgqA2gZf5aKguzqQwgaUGA1UdIwSBnTCBmoAUME7gkV1EgGuTgqA2gZf5aKgu
zqShd6R1MHMxCzAJBgNVBAYTAkZSMQwwCgYDVQQIEwNJREYxDjAMBgNVBAcTBVBh
cmlzMS8wLQYDVQQKEyZMb2NhbCBOT0RFLU9QQ1VBIENlcnRpZmljYXRlIEF1dGhv
cml0eTEVMBMGA1UEAxMMTm9kZU9QQ1VBLUNBggkA1ehtBggk6ykwDAYDVR0TBAUw
AwEB/zAOBgNVHQ8BAf8EBAMCAQYwVwYJYIZIAYb4QgENBEoWSENBIENlcnRpZmlj
YXRlIGdlbmVyYXRlZCBieSBOb2RlLU9QQ1VBIENlcnRpZmljYXRlIHV0aWxpdHkg
dXNpbmcgb3BlbnNzbDAuBgNVHR8EJzAlMCOgIaAfhh1odHRwOi8vbG9jYWxob3N0
Ojg5MDAvY3JsLnBlbTANBgkqhkiG9w0BAQsFAAOCAQEAArPjCJ0zmKimkKLHTKbJ
2qXFeUy0IyhTkWO1C+dhB0YCeefjMIjmOkJf/Mgy53D9Ze3QCFSrWKKfjBjznUKf
RUw1WIzjy0jlsLvZueGrcZMaD18L8+HKl3LYdsa/D+mbjvBBgW0BgC54TdylgLh3
W34rArioZIpKzGwTA5vClon+saFWhQk3OZXgESxTcoPfNgbUxGDDnD67yVnr/lxB
iHXdaVsqkO7v5oZLy9Wfj+UjNgaI39xDI9NdNjZPlq7FPrmVF+nMhp6+euRYskbd
iYH7RW/mCa7vNdI6A2+Y6hIcfF9VLCXLE/Gr47Av1e61TbYDOFgTqBHnhudxYyNJ
dA==
-----END CERTIFICATE-----
