Certificate Request:
    Data:
        Version: 0 (0x0)
        Subject: C=FR, ST=IDF, L=Paris, O=Local NODE-OPCUA Certificate Authority, CN=NodeOPCUA-CA
        Subject Public Key Info:
            Public Key Algorithm: rsaEncryption
                Public-Key: (2048 bit)
                Modulus:
                    00:c3:56:e2:9a:ae:9a:3b:e7:6e:02:fb:bb:7e:44:
                    0d:7f:94:8b:8e:09:7e:23:df:27:77:a2:68:18:67:
                    b3:35:3b:9d:3f:22:b9:58:c0:45:2e:7b:fd:d0:5a:
                    09:fe:e0:75:00:fd:bd:e5:0a:b5:1c:c4:3c:ca:38:
                    34:c9:e9:11:24:66:6c:06:ed:87:d1:db:2c:dd:60:
                    7b:bc:0e:82:50:a0:5a:4c:85:85:54:93:72:79:27:
                    f7:e6:25:2f:09:03:60:2b:8b:61:ef:ea:aa:9d:12:
                    05:d2:d4:cb:04:59:3f:a6:ce:7b:7b:2e:c3:a5:8c:
                    32:c3:f3:30:d8:99:f2:b2:e1:72:fb:18:70:3f:5e:
                    b2:61:93:f9:26:ee:76:01:ee:f0:0a:79:2c:3c:9c:
                    99:fb:3c:6a:b4:88:aa:22:a5:6d:c6:7f:72:44:81:
                    4d:29:c6:d5:d5:4a:6e:8d:fc:ff:fc:96:42:a6:f2:
                    70:cc:5e:88:93:f7:e0:7f:f4:52:76:cf:3c:d9:8b:
                    8f:a2:a1:40:86:f7:63:49:f0:49:8b:58:75:8e:57:
                    2e:2f:22:5a:2f:f5:3b:c1:87:c4:af:57:f6:5d:19:
                    1a:d0:0b:3f:2f:43:78:9e:e6:a3:35:c9:aa:59:45:
                    3c:bc:99:c7:6e:a0:d0:c1:4c:50:d6:d3:7f:f0:d6:
                    0f:8f
                Exponent: 65537 (0x10001)
        Attributes:
        Requested Extensions:
            X509v3 Basic Constraints: critical
                CA:FALSE
            X509v3 Key Usage: 
                Digital Signature, Non Repudiation, Key Encipherment, Data Encipherment, Key Agreement
            X509v3 Subject Alternative Name: 
                URI:undefined
            Netscape Comment: 
                CA Generated by Node-OPCUA Certificate utility using openssl
    Signature Algorithm: sha256WithRSAEncryption
         1b:3b:d1:b7:7f:a8:e2:f6:d3:a0:65:26:6d:c0:e7:a6:5e:78:
         f2:44:59:8b:42:32:96:1d:ee:15:e0:c6:7b:f4:1a:8c:99:81:
         8c:6c:aa:dd:cb:90:9d:43:b2:2c:8f:12:6d:bd:e7:b3:eb:b9:
         d6:18:73:66:c0:46:15:2d:38:17:79:38:35:a9:03:01:aa:ab:
         b6:0c:75:2d:4c:d6:6b:09:6e:1f:5b:87:18:cb:78:9d:f8:1f:
         77:02:7f:9c:ca:4f:e4:45:0f:8b:66:76:5e:a1:ad:72:fd:61:
         be:1a:b2:76:84:98:3e:72:bd:ac:51:0d:86:6c:02:30:5c:b6:
         72:e3:e0:a8:8d:5e:fb:1a:2c:a5:45:1c:f9:8f:1d:ed:72:20:
         0c:46:3f:40:23:1c:7d:76:d8:56:fd:1b:da:e4:28:a5:fb:61:
         c0:65:52:4e:c6:21:8b:92:1f:93:2a:97:95:2a:95:45:89:e4:
         ff:f6:0b:ae:cf:61:6c:df:c7:36:b9:d5:d7:6b:5e:a4:a6:da:
         47:7b:87:9b:87:64:12:f8:36:e2:94:2c:3c:dd:58:5b:8e:a6:
         a8:c9:f5:f6:9b:15:0f:2c:49:4f:71:97:9e:14:0e:b3:3a:ed:
         61:73:51:9b:1a:08:ef:2f:81:94:76:e5:61:ab:1a:fb:87:00:
         5d:2d:de:ac
-----BEGIN CERTIFICATE REQUEST-----
MIIDSjCCAjICAQAwczELMAkGA1UEBhMCRlIxDDAKBgNVBAgTA0lERjEOMAwGA1UE
BxMFUGFyaXMxLzAtBgNVBAoTJkxvY2FsIE5PREUtT1BDVUEgQ2VydGlmaWNhdGUg
QXV0aG9yaXR5MRUwEwYDVQQDEwxOb2RlT1BDVUEtQ0EwggEiMA0GCSqGSIb3DQEB
AQUAA4IBDwAwggEKAoIBAQDDVuKarpo7524C+7t+RA1/lIuOCX4j3yd3omgYZ7M1
O50/IrlYwEUue/3QWgn+4HUA/b3lCrUcxDzKODTJ6REkZmwG7YfR2yzdYHu8DoJQ
oFpMhYVUk3J5J/fmJS8JA2Ari2Hv6qqdEgXS1MsEWT+mznt7LsOljDLD8zDYmfKy
4XL7GHA/XrJhk/km7nYB7vAKeSw8nJn7PGq0iKoipW3Gf3JEgU0pxtXVSm6N/P/8
lkKm8nDMXoiT9+B/9FJ2zzzZi4+ioUCG92NJ8EmLWHWOVy4vIlov9TvBh8SvV/Zd
GRrQCz8vQ3ie5qM1yapZRTy8mcduoNDBTFDW03/w1g+PAgMBAAGggZEwgY4GCSqG
SIb3DQEJDjGBgDB+MAwGA1UdEwEB/wQCMAAwCwYDVR0PBAQDAgP4MBQGA1UdEQQN
MAuGCXVuZGVmaW5lZDBLBglghkgBhvhCAQ0EPhY8Q0EgR2VuZXJhdGVkIGJ5IE5v
ZGUtT1BDVUEgQ2VydGlmaWNhdGUgdXRpbGl0eSB1c2luZyBvcGVuc3NsMA0GCSqG
SIb3DQEBCwUAA4IBAQAbO9G3f6ji9tOgZSZtwOemXnjyRFmLQjKWHe4V4MZ79BqM
mYGMbKrdy5CdQ7IsjxJtveez67nWGHNmwEYVLTgXeTg1qQMBqqu2DHUtTNZrCW4f
W4cYy3id+B93An+cyk/kRQ+LZnZeoa1y/WG+GrJ2hJg+cr2sUQ2GbAIwXLZy4+Co
jV77GiylRRz5jx3tciAMRj9AIxx9dthW/Rva5Cil+2HAZVJOxiGLkh+TKpeVKpVF
ieT/9guuz2Fs38c2udXXa16kptpHe4ebh2QS+DbilCw83VhbjqaoyfX2mxUPLElP
cZeeFA6zOu1hc1GbGgjvL4GUduVhqxr7hwBdLd6s
-----END CERTIFICATE REQUEST-----
