Certificate:
    Data:
        Version: 3 (0x2)
        Serial Number: 4096 (0x1000)
    Signature Algorithm: sha256WithRSAEncryption
        Issuer: C=FR, ST=IDF, L=Paris, O=Local NODE-OPCUA Certificate Authority, CN=NodeOPCUA-CA
        Validity
            Not Before: May 30 08:26:47 2017 GMT
            Not After : May 30 08:26:47 2018 GMT
        Subject: C=FR, O=NodeOPCUA, CN=NodeOPCUA
        Subject Public Key Info:
            Public Key Algorithm: rsaEncryption
                Public-Key: (1024 bit)
                Modulus:
                    00:9b:8f:84:83:04:11:1f:e2:9a:11:f3:0d:26:30:
                    4f:52:d0:64:cb:1b:21:06:af:aa:d9:d4:8d:42:5d:
                    0f:f8:85:8b:ed:41:83:8f:56:4c:d4:3d:cd:e0:db:
                    7c:b8:42:c4:4d:ba:01:dc:22:a5:da:cb:fb:6e:d3:
                    c3:b7:af:2e:fa:42:fb:bd:80:a8:15:3f:86:5e:16:
                    23:62:48:35:61:63:88:0d:04:fd:dd:6a:fa:ee:f2:
                    38:3e:fa:df:d8:30:4c:48:8b:d5:39:67:db:02:c3:
                    90:4f:e9:a3:54:ae:dc:be:a3:9a:6e:20:62:91:1f:
                    68:5e:2e:00:97:4c:2c:ec:59
                Exponent: 65537 (0x10001)
        X509v3 extensions:
            X509v3 Basic Constraints: critical
                CA:FALSE
            X509v3 Subject Key Identifier: 
                AE:41:74:D4:29:79:50:27:D9:2B:93:A5:4F:E4:EF:47:57:85:1D:7E
            X509v3 Authority Key Identifier: 
                keyid:30:4E:E0:91:5D:44:80:6B:93:82:A0:36:81:97:F9:68:A8:2E:CE:A4
                DirName:/C=FR/ST=IDF/L=Paris/O=Local NODE-OPCUA Certificate Authority/CN=NodeOPCUA-CA
                serial:D5:E8:6D:06:08:24:EB:29

            X509v3 Subject Alternative Name: 
                URI:urn:NEST-EHUB70.NEST.LOCAL:NodeOPCUA-Client, DNS:localhost, DNS:NEST-EHUB70.NEST.LOCAL
            Netscape Comment: 
                OpenSSL Generated Certificate
            X509v3 Key Usage: critical
                Digital Signature, Non Repudiation, Key Encipherment, Data Encipherment, Key Agreement, Certificate Sign
            X509v3 Extended Key Usage: critical
                TLS Web Server Authentication, TLS Web Client Authentication
    Signature Algorithm: sha256WithRSAEncryption
         2d:54:0b:04:01:88:98:b0:31:07:35:cf:1d:35:83:8b:b7:44:
         17:d7:fd:a4:00:0f:74:ea:f0:2f:6b:9e:5a:b2:0f:dd:d4:6b:
         10:cd:63:87:3d:06:8b:8d:53:90:a5:d0:90:9c:3e:87:b5:9d:
         3f:82:38:77:94:cd:40:c2:e0:2e:f7:18:7d:98:81:24:4f:00:
         96:4d:5b:db:e2:1c:42:38:7f:2a:48:69:94:0e:7a:a4:ca:86:
         d8:bb:1c:60:c3:da:f5:7f:a0:8b:17:81:32:94:1d:62:e7:e2:
         61:0d:80:05:6b:50:b1:8d:fc:0a:33:a4:f9:e5:ec:46:60:03:
         d4:14:49:dd:01:2e:77:85:36:87:4d:7c:ce:99:00:8c:8c:e3:
         7d:74:a5:6c:51:93:68:00:e5:ce:35:21:2e:7a:7a:54:9b:7f:
         9e:a1:d2:4c:94:1c:a1:ee:20:33:11:2d:b7:64:18:48:93:44:
         92:6c:6b:ae:44:91:bf:57:74:b7:3f:e4:f4:62:76:f2:b1:2d:
         80:95:fe:e1:15:82:a4:6b:a1:50:de:33:3b:49:9b:0f:94:9e:
         68:85:e4:5f:f0:85:5b:1d:b0:28:18:bf:b0:28:cb:09:f8:ec:
         e2:0e:b2:be:7c:2b:42:72:52:21:25:a0:dd:45:07:5a:b5:d1:
         43:da:cb:c9
-----BEGIN CERTIFICATE-----
MIIEOjCCAyKgAwIBAgICEAAwDQYJKoZIhvcNAQELBQAwczELMAkGA1UEBhMCRlIx
DDAKBgNVBAgTA0lERjEOMAwGA1UEBxMFUGFyaXMxLzAtBgNVBAoTJkxvY2FsIE5P
REUtT1BDVUEgQ2VydGlmaWNhdGUgQXV0aG9yaXR5MRUwEwYDVQQDEwxOb2RlT1BD
VUEtQ0EwIhgPMjAxNzA1MzAwODI2NDdaGA8yMDE4MDUzMDA4MjY0N1owNTELMAkG
A1UEBhMCRlIxEjAQBgNVBAoMCU5vZGVPUENVQTESMBAGA1UEAwwJTm9kZU9QQ1VB
MIGfMA0GCSqGSIb3DQEBAQUAA4GNADCBiQKBgQCbj4SDBBEf4poR8w0mME9S0GTL
GyEGr6rZ1I1CXQ/4hYvtQYOPVkzUPc3g23y4QsRNugHcIqXay/tu08O3ry76Qvu9
gKgVP4ZeFiNiSDVhY4gNBP3davru8jg++t/YMExIi9U5Z9sCw5BP6aNUrty+o5pu
IGKRH2heLgCXTCzsWQIDAQABo4IBlDCCAZAwDAYDVR0TAQH/BAIwADAdBgNVHQ4E
FgQUrkF01Cl5UCfZK5OlT+TvR1eFHX4wgaUGA1UdIwSBnTCBmoAUME7gkV1EgGuT
gqA2gZf5aKguzqShd6R1MHMxCzAJBgNVBAYTAkZSMQwwCgYDVQQIEwNJREYxDjAM
BgNVBAcTBVBhcmlzMS8wLQYDVQQKEyZMb2NhbCBOT0RFLU9QQ1VBIENlcnRpZmlj
YXRlIEF1dGhvcml0eTEVMBMGA1UEAxMMTm9kZU9QQ1VBLUNBggkA1ehtBggk6ykw
WQYDVR0RBFIwUIYrdXJuOk5FU1QtRUhVQjcwLk5FU1QuTE9DQUw6Tm9kZU9QQ1VB
LUNsaWVudIIJbG9jYWxob3N0ghZORVNULUVIVUI3MC5ORVNULkxPQ0FMMCwGCWCG
SAGG+EIBDQQfFh1PcGVuU1NMIEdlbmVyYXRlZCBDZXJ0aWZpY2F0ZTAOBgNVHQ8B
Af8EBAMCAvwwIAYDVR0lAQH/BBYwFAYIKwYBBQUHAwEGCCsGAQUFBwMCMA0GCSqG
SIb3DQEBCwUAA4IBAQAtVAsEAYiYsDEHNc8dNYOLt0QX1/2kAA906vAva55asg/d
1GsQzWOHPQaLjVOQpdCQnD6HtZ0/gjh3lM1AwuAu9xh9mIEkTwCWTVvb4hxCOH8q
SGmUDnqkyobYuxxgw9r1f6CLF4EylB1i5+JhDYAFa1CxjfwKM6T55exGYAPUFEnd
AS53hTaHTXzOmQCMjON9dKVsUZNoAOXONSEuenpUm3+eodJMlByh7iAzES23ZBhI
k0SSbGuuRJG/V3S3P+T0YnbysS2Alf7hFYKka6FQ3jM7SZsPlJ5oheRf8IVbHbAo
GL+wKMsJ+OziDrK+fCtCclIhJaDdRQdatdFD2svJ
-----END CERTIFICATE-----
