Certificate:
    Data:
        Version: 3 (0x2)
        Serial Number: 4098 (0x1002)
    Signature Algorithm: sha256WithRSAEncryption
        Issuer: C=FR, ST=IDF, L=Paris, O=Local NODE-OPCUA Certificate Authority, CN=NodeOPCUA-CA
        Validity
            Not Before: May 30 08:26:47 2017 GMT
            Not After : May 30 08:26:47 2018 GMT
        Subject: C=FR, O=NodeOPCUA, CN=NodeOPCUA
        Subject Public Key Info:
            Public Key Algorithm: rsaEncryption
                Public-Key: (2048 bit)
                Modulus:
                    00:b8:ad:0f:20:75:1b:2e:1e:e5:6d:e4:91:2b:df:
                    8f:c4:84:2d:cc:b0:f0:bb:79:09:64:05:fd:95:69:
                    69:d2:ba:a5:a3:08:b3:58:ab:99:e7:b5:49:63:03:
                    6d:40:f6:75:85:23:8b:e9:f2:5f:35:20:e0:43:8d:
                    f6:ef:02:a5:6e:fd:62:43:20:0f:2b:7e:d7:0d:0b:
                    71:3d:cd:df:5d:b7:92:bc:48:e8:3b:29:d3:5c:11:
                    d7:1d:d8:d7:c3:ae:38:e3:18:4d:93:d2:fd:00:19:
                    1e:31:02:c4:da:e3:41:d6:64:bd:33:9a:e6:1c:5f:
                    b2:02:d5:80:a8:4f:4e:23:96:9d:6a:2b:8a:ec:36:
                    8b:df:67:97:00:96:84:d5:b8:47:6d:b8:ca:f3:25:
                    05:fe:4e:19:f4:f5:0d:59:0a:9e:ec:05:c2:a7:77:
                    ca:fa:f4:7a:92:90:6a:ab:8a:e3:37:68:2d:e4:da:
                    9e:95:6d:f0:a6:a9:26:fa:7f:ae:11:6c:1f:f0:42:
                    8b:aa:31:98:89:5e:1b:e9:e2:d3:02:70:b3:09:5e:
                    c5:94:e9:1b:2d:d5:68:c0:46:8f:02:8b:d0:1d:9a:
                    34:36:9a:f5:64:95:26:91:8a:16:a3:11:f1:f1:5c:
                    c1:74:58:51:aa:63:9b:27:ef:7d:9f:15:20:93:2a:
                    1c:89
                Exponent: 65537 (0x10001)
        X509v3 extensions:
            X509v3 Basic Constraints: critical
                CA:FALSE
            X509v3 Subject Key Identifier: 
                8F:02:05:DA:B8:9B:9C:A3:80:D4:17:CB:A0:C7:20:D4:27:89:74:EC
            X509v3 Authority Key Identifier: 
                keyid:30:4E:E0:91:5D:44:80:6B:93:82:A0:36:81:97:F9:68:A8:2E:CE:A4
                DirName:/C=FR/ST=IDF/L=Paris/O=Local NODE-OPCUA Certificate Authority/CN=NodeOPCUA-CA
                serial:D5:E8:6D:06:08:24:EB:29

            X509v3 Subject Alternative Name: 
                URI:urn:NEST-EHUB70.NEST.LOCAL:NodeOPCUA-Client, DNS:localhost, DNS:NEST-EHUB70.NEST.LOCAL
            Netscape Comment: 
                OpenSSL Generated Certificate
            X509v3 Key Usage: critical
                Digital Signature, Non Repudiation, Key Encipherment, Data Encipherment, Key Agreement, Certificate Sign
            X509v3 Extended Key Usage: critical
                TLS Web Server Authentication, TLS Web Client Authentication
    Signature Algorithm: sha256WithRSAEncryption
         34:64:14:85:9f:7c:09:4c:c4:1a:1f:db:47:b8:a9:07:d0:f4:
         0c:8e:de:c1:cf:87:16:9c:4e:d4:91:67:67:07:a3:aa:8b:9c:
         7e:53:0d:db:27:22:8b:a9:93:fc:33:f9:8b:7d:9a:5b:02:54:
         1b:f2:62:36:b8:a4:33:fa:11:04:f2:b1:13:7c:2d:f6:4e:24:
         28:28:77:b9:95:ce:4e:6e:fc:77:1e:20:f9:cc:52:7e:3c:17:
         b0:26:4f:02:5b:c8:95:0e:95:cf:a2:21:0d:19:4a:6c:79:c9:
         f0:9d:f7:3d:0a:fd:36:48:14:c0:47:91:dd:15:78:0e:db:dd:
         32:bc:92:c7:30:a7:15:2a:a7:0f:5b:62:68:1e:df:a5:c1:4b:
         d3:71:ed:1f:cf:68:2d:e5:28:1f:59:1a:c8:a3:20:c9:97:15:
         90:ad:92:b3:8f:b5:8e:d3:20:b7:04:42:25:fa:ba:e5:70:6a:
         4d:70:fb:75:fa:63:1c:f3:cf:c4:6d:2c:49:87:72:93:e9:b0:
         94:a9:03:7d:d1:e1:2c:9e:83:57:f1:08:b9:cf:57:58:4e:1b:
         03:69:51:71:48:f9:65:78:db:ee:c8:85:fb:84:5d:8b:89:e5:
         47:2e:e3:a5:ed:15:6c:5c:e0:2b:a9:45:82:77:14:53:e3:54:
         39:da:4f:e3
-----BEGIN CERTIFICATE-----
MIIEvjCCA6agAwIBAgICEAIwDQYJKoZIhvcNAQELBQAwczELMAkGA1UEBhMCRlIx
DDAKBgNVBAgTA0lERjEOMAwGA1UEBxMFUGFyaXMxLzAtBgNVBAoTJkxvY2FsIE5P
REUtT1BDVUEgQ2VydGlmaWNhdGUgQXV0aG9yaXR5MRUwEwYDVQQDEwxOb2RlT1BD
VUEtQ0EwIhgPMjAxNzA1MzAwODI2NDdaGA8yMDE4MDUzMDA4MjY0N1owNTELMAkG
A1UEBhMCRlIxEjAQBgNVBAoMCU5vZGVPUENVQTESMBAGA1UEAwwJTm9kZU9QQ1VB
MIIBIjANBgkqhkiG9w0BAQEFAAOCAQ8AMIIBCgKCAQEAuK0PIHUbLh7lbeSRK9+P
xIQtzLDwu3kJZAX9lWlp0rqlowizWKuZ57VJYwNtQPZ1hSOL6fJfNSDgQ4327wKl
bv1iQyAPK37XDQtxPc3fXbeSvEjoOynTXBHXHdjXw6444xhNk9L9ABkeMQLE2uNB
1mS9M5rmHF+yAtWAqE9OI5adaiuK7DaL32eXAJaE1bhHbbjK8yUF/k4Z9PUNWQqe
7AXCp3fK+vR6kpBqq4rjN2gt5NqelW3wpqkm+n+uEWwf8EKLqjGYiV4b6eLTAnCz
CV7FlOkbLdVowEaPAovQHZo0Npr1ZJUmkYoWoxHx8VzBdFhRqmObJ+99nxUgkyoc
iQIDAQABo4IBlDCCAZAwDAYDVR0TAQH/BAIwADAdBgNVHQ4EFgQUjwIF2ribnKOA
1BfLoMcg1CeJdOwwgaUGA1UdIwSBnTCBmoAUME7gkV1EgGuTgqA2gZf5aKguzqSh
d6R1MHMxCzAJBgNVBAYTAkZSMQwwCgYDVQQIEwNJREYxDjAMBgNVBAcTBVBhcmlz
MS8wLQYDVQQKEyZMb2NhbCBOT0RFLU9QQ1VBIENlcnRpZmljYXRlIEF1dGhvcml0
eTEVMBMGA1UEAxMMTm9kZU9QQ1VBLUNBggkA1ehtBggk6ykwWQYDVR0RBFIwUIYr
dXJuOk5FU1QtRUhVQjcwLk5FU1QuTE9DQUw6Tm9kZU9QQ1VBLUNsaWVudIIJbG9j
YWxob3N0ghZORVNULUVIVUI3MC5ORVNULkxPQ0FMMCwGCWCGSAGG+EIBDQQfFh1P
cGVuU1NMIEdlbmVyYXRlZCBDZXJ0aWZpY2F0ZTAOBgNVHQ8BAf8EBAMCAvwwIAYD
VR0lAQH/BBYwFAYIKwYBBQUHAwEGCCsGAQUFBwMCMA0GCSqGSIb3DQEBCwUAA4IB
AQA0ZBSFn3wJTMQaH9tHuKkH0PQMjt7Bz4cWnE7UkWdnB6Oqi5x+Uw3bJyKLqZP8
M/mLfZpbAlQb8mI2uKQz+hEE8rETfC32TiQoKHe5lc5Obvx3HiD5zFJ+PBewJk8C
W8iVDpXPoiENGUpsecnwnfc9Cv02SBTAR5HdFXgO290yvJLHMKcVKqcPW2JoHt+l
wUvTce0fz2gt5SgfWRrIoyDJlxWQrZKzj7WO0yC3BEIl+rrlcGpNcPt1+mMc88/E
bSxJh3KT6bCUqQN90eEsnoNX8Qi5z1dYThsDaVFxSPlleNvuyIX7hF2LieVHLuOl
7RVsXOArqUWCdxRT41Q52k/j
-----END CERTIFICATE-----
