Certificate:
    Data:
        Version: 3 (0x2)
        Serial Number: 4101 (0x1005)
    Signature Algorithm: sha256WithRSAEncryption
        Issuer: O=NodeOPCUA, CN=NodeOPCUA
        Validity
            Not Before: May 30 08:26:47 2017 GMT
            Not After : May 30 08:26:47 2018 GMT
        Subject: O=NodeOPCUA, CN=NodeOPCUA
        Subject Public Key Info:
            Public Key Algorithm: rsaEncryption
                Public-Key: (1024 bit)
                Modulus:
                    00:a7:f7:13:e9:93:eb:5b:aa:3e:24:61:68:0e:73:
                    00:86:16:ca:91:24:cf:f3:1e:5d:5c:56:b1:6f:21:
                    21:28:2f:9d:89:d1:4f:fa:2b:8d:63:1b:31:4d:b0:
                    d2:e8:f5:bd:27:84:ce:5f:cb:3c:ba:3c:48:82:b4:
                    ea:93:f5:cc:1f:95:e1:8c:fa:2e:b8:93:cc:f7:06:
                    ab:97:7e:f3:6a:9b:df:c5:c8:79:d6:03:53:ee:8d:
                    0c:33:c2:81:05:c5:c3:1b:2f:a7:55:49:e0:84:4d:
                    23:43:3f:b7:05:fd:99:b0:c5:0d:ad:77:55:fd:81:
                    40:d6:eb:e8:75:5b:46:67:db
                Exponent: 65537 (0x10001)
        X509v3 extensions:
            X509v3 Basic Constraints: critical
                CA:FALSE
            X509v3 Subject Key Identifier: 
                7B:74:DF:8C:D0:11:5E:0A:A4:05:18:B7:A2:45:8B:41:64:BA:6D:DA
            X509v3 Authority Key Identifier: 
                keyid:7B:74:DF:8C:D0:11:5E:0A:A4:05:18:B7:A2:45:8B:41:64:BA:6D:DA
                DirName:/O=NodeOPCUA/CN=NodeOPCUA
                serial:10:05

            X509v3 Subject Alternative Name: 
                URI:urn:NEST-EHUB70.NEST.LOCAL:NodeOPCUA-Server, DNS:localhost, DNS:NEST-EHUB70.NEST.LOCAL
            Netscape Comment: 
                OpenSSL Generated Certificate
            X509v3 Key Usage: critical
                Digital Signature, Non Repudiation, Key Encipherment, Data Encipherment, Key Agreement, Certificate Sign
            X509v3 Extended Key Usage: critical
                TLS Web Server Authentication, TLS Web Client Authentication
    Signature Algorithm: sha256WithRSAEncryption
         55:ca:1b:e0:0d:ab:ed:34:a0:dd:1f:4d:07:48:87:2c:27:3a:
         ee:2d:c6:9b:02:51:68:c4:81:61:38:09:1c:78:d4:99:8a:51:
         d3:f6:f3:2c:08:16:03:d4:9f:ce:e0:50:0e:e0:c8:38:29:cd:
         9e:c5:c9:62:49:75:00:a8:57:cc:10:1e:aa:ef:53:30:34:97:
         c6:58:49:0e:8f:95:f9:e6:8b:3a:82:2f:ea:ea:40:92:f7:75:
         ec:2f:29:04:94:af:93:a8:e9:0a:d9:91:a4:e4:92:6b:35:3a:
         37:70:e6:a2:1b:a3:6b:5f:bf:a1:a5:56:8e:28:c9:6b:95:c2:
         cf:d5
-----BEGIN CERTIFICATE-----
MIIDDDCCAnWgAwIBAgICEAUwDQYJKoZIhvcNAQELBQAwKDESMBAGA1UEChMJTm9k
ZU9QQ1VBMRIwEAYDVQQDEwlOb2RlT1BDVUEwIhgPMjAxNzA1MzAwODI2NDdaGA8y
MDE4MDUzMDA4MjY0N1owKDESMBAGA1UEChMJTm9kZU9QQ1VBMRIwEAYDVQQDEwlO
b2RlT1BDVUEwgZ8wDQYJKoZIhvcNAQEBBQADgY0AMIGJAoGBAKf3E+mT61uqPiRh
aA5zAIYWypEkz/MeXVxWsW8hISgvnYnRT/orjWMbMU2w0uj1vSeEzl/LPLo8SIK0
6pP1zB+V4Yz6LriTzPcGq5d+82qb38XIedYDU+6NDDPCgQXFwxsvp1VJ4IRNI0M/
twX9mbDFDa13Vf2BQNbr6HVbRmfbAgMBAAGjggE/MIIBOzAMBgNVHRMBAf8EAjAA
MB0GA1UdDgQWBBR7dN+M0BFeCqQFGLeiRYtBZLpt2jBRBgNVHSMESjBIgBR7dN+M
0BFeCqQFGLeiRYtBZLpt2qEspCowKDESMBAGA1UEChMJTm9kZU9QQ1VBMRIwEAYD
VQQDEwlOb2RlT1BDVUGCAhAFMFkGA1UdEQRSMFCGK3VybjpORVNULUVIVUI3MC5O
RVNULkxPQ0FMOk5vZGVPUENVQS1TZXJ2ZXKCCWxvY2FsaG9zdIIWTkVTVC1FSFVC
NzAuTkVTVC5MT0NBTDAsBglghkgBhvhCAQ0EHxYdT3BlblNTTCBHZW5lcmF0ZWQg
Q2VydGlmaWNhdGUwDgYDVR0PAQH/BAQDAgL8MCAGA1UdJQEB/wQWMBQGCCsGAQUF
BwMBBggrBgEFBQcDAjANBgkqhkiG9w0BAQsFAAOBgQBVyhvgDavtNKDdH00HSIcs
JzruLcabAlFoxIFhOAkceNSZilHT9vMsCBYD1J/O4FAO4Mg4Kc2excliSXUAqFfM
EB6q71MwNJfGWEkOj5X55os6gi/q6kCS93XsLykElK+TqOkK2ZGk5JJrNTo3cOai
G6NrX7+hpVaOKMlrlcLP1Q==
-----END CERTIFICATE-----
