Certificate:
    Data:
        Version: 3 (0x2)
        Serial Number: 4103 (0x1007)
    Signature Algorithm: sha256WithRSAEncryption
        Issuer: O=NodeOPCUA, CN=NodeOPCUA
        Validity
            Not Before: May 30 08:26:47 2017 GMT
            Not After : May 30 08:26:47 2018 GMT
        Subject: O=NodeOPCUA, CN=NodeOPCUA
        Subject Public Key Info:
            Public Key Algorithm: rsaEncryption
                Public-Key: (2048 bit)
                Modulus:
                    00:db:8c:a9:39:3a:5e:32:49:4b:99:d6:ad:f7:11:
                    c2:4a:d7:8c:03:f8:67:5b:29:20:03:d5:04:1b:97:
                    72:14:69:d4:ce:e5:67:85:87:ff:5f:00:65:25:d3:
                    d2:0c:12:f3:6f:dd:88:dc:8a:20:ca:cd:d1:82:a0:
                    cc:85:1f:34:a5:e7:07:d6:22:2a:dc:ce:8c:ef:81:
                    38:49:db:8e:61:98:81:86:ed:d0:db:17:32:da:78:
                    e5:68:aa:72:ea:45:08:19:84:05:de:08:95:ab:e8:
                    79:9d:4e:2a:0f:2e:a8:d1:75:b8:e5:0f:22:94:85:
                    6d:bd:c8:5f:a3:09:af:8f:b7:18:43:25:61:9f:cf:
                    f6:3c:b4:50:ab:c4:b2:68:b0:e8:85:c1:64:90:9d:
                    3c:89:48:f9:ae:da:4e:56:88:a2:b9:f6:85:9c:87:
                    d9:ea:84:85:6d:48:be:2a:83:1b:03:6e:4c:b7:e3:
                    4d:30:76:2a:7a:ea:75:7d:b6:61:8a:6b:63:2f:c1:
                    10:28:b7:e6:14:db:d0:e1:de:47:d8:25:91:0c:3a:
                    16:7b:cb:15:03:91:91:b3:60:5c:1f:5b:0b:86:ba:
                    b7:2d:84:19:a2:b4:c3:d4:51:9a:a5:c0:2e:ba:a5:
                    14:7f:cb:71:d6:80:7a:84:50:6c:01:65:81:14:aa:
                    4f:19
                Exponent: 65537 (0x10001)
        X509v3 extensions:
            X509v3 Basic Constraints: critical
                CA:FALSE
            X509v3 Subject Key Identifier: 
                18:C0:D9:62:1A:0F:8C:CA:81:E6:42:93:2F:DC:64:DC:4B:47:DC:28
            X509v3 Authority Key Identifier: 
                keyid:18:C0:D9:62:1A:0F:8C:CA:81:E6:42:93:2F:DC:64:DC:4B:47:DC:28
                DirName:/O=NodeOPCUA/CN=NodeOPCUA
                serial:10:07

            X509v3 Subject Alternative Name: 
                URI:urn:NEST-EHUB70.NEST.LOCAL:NodeOPCUA-Server, DNS:localhost, DNS:NEST-EHUB70.NEST.LOCAL
            Netscape Comment: 
                OpenSSL Generated Certificate
            X509v3 Key Usage: critical
                Digital Signature, Non Repudiation, Key Encipherment, Data Encipherment, Key Agreement, Certificate Sign
            X509v3 Extended Key Usage: critical
                TLS Web Server Authentication, TLS Web Client Authentication
    Signature Algorithm: sha256WithRSAEncryption
         8b:e9:f4:9a:f1:c8:74:b3:d9:c5:ac:26:6c:c7:a9:f7:ed:5a:
         ce:7f:5e:77:70:c4:e1:17:a7:0f:eb:9f:4d:bb:d3:fe:58:f5:
         8b:0f:cc:5e:63:00:62:53:98:4f:31:c5:ec:87:01:43:89:0e:
         f8:09:0b:f3:b8:81:b7:a3:d5:ed:1b:8b:99:62:33:d2:ae:1f:
         60:76:9a:1b:26:0a:6b:9f:c4:55:73:5c:56:72:3f:f4:2f:6a:
         d9:1b:00:25:b9:43:05:a1:26:70:82:32:74:d9:74:86:fa:af:
         9f:0b:39:dd:cc:ad:c6:58:d2:c2:2d:64:e8:84:7c:16:37:fc:
         d0:a9:de:b6:1a:ae:5c:76:85:fb:de:65:71:5b:2b:6a:7f:75:
         48:59:4a:ce:26:b5:b6:9e:7d:ca:99:dc:84:bb:90:7d:10:46:
         ec:86:1e:38:33:d0:3a:fd:a2:34:81:20:26:da:27:a4:34:96:
         22:24:84:68:cd:c2:b1:45:ef:1c:0a:4b:19:33:80:f4:33:1d:
         11:d4:ab:3b:ee:81:a6:be:28:68:e0:64:43:f9:6f:45:a3:97:
         27:aa:69:9c:75:09:f2:ff:4c:5d:2e:8a:d0:76:da:8b:3d:86:
         16:a3:b3:8b:9f:00:9c:43:06:9f:6f:d6:1a:19:6e:f5:fd:1f:
         73:a5:5f:a2
-----BEGIN CERTIFICATE-----
MIIEETCCAvmgAwIBAgICEAcwDQYJKoZIhvcNAQELBQAwKDESMBAGA1UEChMJTm9k
ZU9QQ1VBMRIwEAYDVQQDEwlOb2RlT1BDVUEwIhgPMjAxNzA1MzAwODI2NDdaGA8y
MDE4MDUzMDA4MjY0N1owKDESMBAGA1UEChMJTm9kZU9QQ1VBMRIwEAYDVQQDEwlO
b2RlT1BDVUEwggEiMA0GCSqGSIb3DQEBAQUAA4IBDwAwggEKAoIBAQDbjKk5Ol4y
SUuZ1q33EcJK14wD+GdbKSAD1QQbl3IUadTO5WeFh/9fAGUl09IMEvNv3YjciiDK
zdGCoMyFHzSl5wfWIirczozvgThJ245hmIGG7dDbFzLaeOVoqnLqRQgZhAXeCJWr
6HmdTioPLqjRdbjlDyKUhW29yF+jCa+PtxhDJWGfz/Y8tFCrxLJosOiFwWSQnTyJ
SPmu2k5WiKK59oWch9nqhIVtSL4qgxsDbky3400wdip66nV9tmGKa2MvwRAot+YU
29Dh3kfYJZEMOhZ7yxUDkZGzYFwfWwuGurcthBmitMPUUZqlwC66pRR/y3HWgHqE
UGwBZYEUqk8ZAgMBAAGjggE/MIIBOzAMBgNVHRMBAf8EAjAAMB0GA1UdDgQWBBQY
wNliGg+MyoHmQpMv3GTcS0fcKDBRBgNVHSMESjBIgBQYwNliGg+MyoHmQpMv3GTc
S0fcKKEspCowKDESMBAGA1UEChMJTm9kZU9QQ1VBMRIwEAYDVQQDEwlOb2RlT1BD
VUGCAhAHMFkGA1UdEQRSMFCGK3VybjpORVNULUVIVUI3MC5ORVNULkxPQ0FMOk5v
ZGVPUENVQS1TZXJ2ZXKCCWxvY2FsaG9zdIIWTkVTVC1FSFVCNzAuTkVTVC5MT0NB
TDAsBglghkgBhvhCAQ0EHxYdT3BlblNTTCBHZW5lcmF0ZWQgQ2VydGlmaWNhdGUw
DgYDVR0PAQH/BAQDAgL8MCAGA1UdJQEB/wQWMBQGCCsGAQUFBwMBBggrBgEFBQcD
AjANBgkqhkiG9w0BAQsFAAOCAQEAi+n0mvHIdLPZxawmbMep9+1azn9ed3DE4Ren
D+ufTbvT/lj1iw/MXmMAYlOYTzHF7IcBQ4kO+AkL87iBt6PV7RuLmWIz0q4fYHaa
GyYKa5/EVXNcVnI/9C9q2RsAJblDBaEmcIIydNl0hvqvnws53cytxljSwi1k6IR8
Fjf80KnethquXHaF+95lcVsran91SFlKzia1tp59ypnchLuQfRBG7IYeODPQOv2i
NIEgJtonpDSWIiSEaM3CsUXvHApLGTOA9DMdEdSrO+6Bpr4oaOBkQ/lvRaOXJ6pp
nHUJ8v9MXS6K0Hbaiz2GFqOzi58AnEMGn2/WGhlu9f0fc6Vfog==
-----END CERTIFICATE-----
