Certificate:
    Data:
        Version: 3 (0x2)
        Serial Number: 4104 (0x1008)
    Signature Algorithm: sha256WithRSAEncryption
        Issuer: C=FR, ST=IDF, L=Paris, O=Local NODE-OPCUA Certificate Authority, CN=NodeOPCUA-CA
        Validity
            Not Before: May 30 08:26:47 2017 GMT
            Not After : May 30 08:26:47 2018 GMT
        Subject: C=FR, O=NodeOPCUA, CN=NodeOPCUA
        Subject Public Key Info:
            Public Key Algorithm: rsaEncryption
                Public-Key: (1024 bit)
                Modulus:
                    00:bb:be:1e:0d:52:83:31:64:7a:ab:88:7b:95:5b:
                    dd:83:04:53:7e:e7:f8:e3:21:22:4e:b6:b2:17:1e:
                    e7:31:bd:c1:47:dc:63:a5:d7:06:8e:57:88:2e:ef:
                    75:e4:ba:42:47:a2:7b:5b:ba:fc:34:b5:f6:a5:87:
                    33:52:3e:9f:b9:30:29:1f:65:70:1c:17:b6:ac:9e:
                    e3:5b:0f:ef:ec:6d:c1:df:2f:61:0d:65:77:a4:9d:
                    6b:4f:05:67:55:08:e7:f0:2b:3c:1e:d6:19:d7:06:
                    5d:ce:84:3e:23:15:7c:ae:da:a4:cd:18:06:74:42:
                    47:be:3f:93:ba:12:a8:81:83
                Exponent: 65537 (0x10001)
        X509v3 extensions:
            X509v3 Basic Constraints: critical
                CA:FALSE
            X509v3 Subject Key Identifier: 
                31:11:1F:7F:77:AE:4F:69:1D:E1:5B:03:C2:9C:A5:68:8C:7F:90:14
            X509v3 Authority Key Identifier: 
                keyid:30:4E:E0:91:5D:44:80:6B:93:82:A0:36:81:97:F9:68:A8:2E:CE:A4
                DirName:/C=FR/ST=IDF/L=Paris/O=Local NODE-OPCUA Certificate Authority/CN=NodeOPCUA-CA
                serial:D5:E8:6D:06:08:24:EB:29

            X509v3 Subject Alternative Name: 
                URI:urn:NEST-EHUB70.NEST.LOCAL:NodeOPCUA-DiscoveryServer, DNS:localhost, DNS:NEST-EHUB70.NEST.LOCAL
            Netscape Comment: 
                OpenSSL Generated Certificate
            X509v3 Key Usage: critical
                Digital Signature, Non Repudiation, Key Encipherment, Data Encipherment, Key Agreement, Certificate Sign
            X509v3 Extended Key Usage: critical
                TLS Web Server Authentication, TLS Web Client Authentication
    Signature Algorithm: sha256WithRSAEncryption
         40:02:30:67:6e:a7:12:a9:73:ff:5a:e4:3a:3f:22:45:88:cf:
         28:b5:28:83:8b:94:e5:3e:18:0b:25:24:08:06:54:4f:69:fd:
         52:34:fe:42:b7:19:60:fd:c5:c3:c4:37:6f:db:71:11:56:8e:
         9d:db:a1:df:23:c6:20:ed:e5:58:2b:a1:1a:16:b9:b0:0a:55:
         78:b8:6c:8d:3b:ce:f6:9e:8d:33:c7:5a:b9:21:c9:36:f2:39:
         28:92:75:a6:22:8a:e7:10:77:ad:02:ae:b7:3d:02:d4:a5:c7:
         9d:8f:92:fb:5c:40:0c:16:18:a0:71:5d:8a:9b:a9:30:62:ca:
         54:23:8b:4c:f6:05:fe:5c:37:d5:b4:d9:0e:e8:81:e5:e7:2b:
         3d:bd:0d:6f:f5:69:93:c5:e6:ae:30:13:28:a3:64:66:9f:f2:
         44:22:ca:74:bf:f8:3c:a2:b9:ad:72:59:39:47:3b:18:60:8f:
         1c:52:66:06:32:d9:2d:9a:5d:06:d2:3e:4e:2c:a3:4f:8a:b6:
         43:1f:d1:1b:8c:40:36:09:b7:34:c7:00:9f:3b:57:a2:9f:4a:
         d5:3d:b6:8f:8f:f9:a4:c3:ca:07:90:ba:45:cb:77:c1:0d:31:
         21:6a:a9:34:70:46:aa:7f:67:0c:92:ba:23:b8:d0:88:4b:4a:
         39:f8:98:42
-----BEGIN CERTIFICATE-----
MIIEQzCCAyugAwIBAgICEAgwDQYJKoZIhvcNAQELBQAwczELMAkGA1UEBhMCRlIx
DDAKBgNVBAgTA0lERjEOMAwGA1UEBxMFUGFyaXMxLzAtBgNVBAoTJkxvY2FsIE5P
REUtT1BDVUEgQ2VydGlmaWNhdGUgQXV0aG9yaXR5MRUwEwYDVQQDEwxOb2RlT1BD
VUEtQ0EwIhgPMjAxNzA1MzAwODI2NDdaGA8yMDE4MDUzMDA4MjY0N1owNTELMAkG
A1UEBhMCRlIxEjAQBgNVBAoMCU5vZGVPUENVQTESMBAGA1UEAwwJTm9kZU9QQ1VB
MIGfMA0GCSqGSIb3DQEBAQUAA4GNADCBiQKBgQC7vh4NUoMxZHqriHuVW92DBFN+
5/jjISJOtrIXHucxvcFH3GOl1waOV4gu73XkukJHontbuvw0tfalhzNSPp+5MCkf
ZXAcF7asnuNbD+/sbcHfL2ENZXeknWtPBWdVCOfwKzwe1hnXBl3OhD4jFXyu2qTN
GAZ0Qke+P5O6EqiBgwIDAQABo4IBnTCCAZkwDAYDVR0TAQH/BAIwADAdBgNVHQ4E
FgQUMREff3euT2kd4VsDwpylaIx/kBQwgaUGA1UdIwSBnTCBmoAUME7gkV1EgGuT
gqA2gZf5aKguzqShd6R1MHMxCzAJBgNVBAYTAkZSMQwwCgYDVQQIEwNJREYxDjAM
BgNVBAcTBVBhcmlzMS8wLQYDVQQKEyZMb2NhbCBOT0RFLU9QQ1VBIENlcnRpZmlj
YXRlIEF1dGhvcml0eTEVMBMGA1UEAxMMTm9kZU9QQ1VBLUNBggkA1ehtBggk6ykw
YgYDVR0RBFswWYY0dXJuOk5FU1QtRUhVQjcwLk5FU1QuTE9DQUw6Tm9kZU9QQ1VB
LURpc2NvdmVyeVNlcnZlcoIJbG9jYWxob3N0ghZORVNULUVIVUI3MC5ORVNULkxP
Q0FMMCwGCWCGSAGG+EIBDQQfFh1PcGVuU1NMIEdlbmVyYXRlZCBDZXJ0aWZpY2F0
ZTAOBgNVHQ8BAf8EBAMCAvwwIAYDVR0lAQH/BBYwFAYIKwYBBQUHAwEGCCsGAQUF
BwMCMA0GCSqGSIb3DQEBCwUAA4IBAQBAAjBnbqcSqXP/WuQ6PyJFiM8otSiDi5Tl
PhgLJSQIBlRPaf1SNP5Ctxlg/cXDxDdv23ERVo6d26HfI8Yg7eVYK6EaFrmwClV4
uGyNO872no0zx1q5Ick28jkoknWmIornEHetAq63PQLUpcedj5L7XEAMFhigcV2K
m6kwYspUI4tM9gX+XDfVtNkO6IHl5ys9vQ1v9WmTxeauMBMoo2Rmn/JEIsp0v/g8
ormtclk5RzsYYI8cUmYGMtktml0G0j5OLKNPirZDH9EbjEA2Cbc0xwCfO1ein0rV
PbaPj/mkw8oHkLpFy3fBDTEhaqk0cEaqf2cMkrojuNCIS0o5+JhC
-----END CERTIFICATE-----
