Certificate:
    Data:
        Version: 3 (0x2)
        Serial Number: 4105 (0x1009)
    Signature Algorithm: sha256WithRSAEncryption
        Issuer: O=NodeOPCUA, CN=NodeOPCUA
        Validity
            Not Before: May 30 08:26:47 2017 GMT
            Not After : May 30 08:26:47 2018 GMT
        Subject: O=NodeOPCUA, CN=NodeOPCUA
        Subject Public Key Info:
            Public Key Algorithm: rsaEncryption
                Public-Key: (1024 bit)
                Modulus:
                    00:bb:be:1e:0d:52:83:31:64:7a:ab:88:7b:95:5b:
                    dd:83:04:53:7e:e7:f8:e3:21:22:4e:b6:b2:17:1e:
                    e7:31:bd:c1:47:dc:63:a5:d7:06:8e:57:88:2e:ef:
                    75:e4:ba:42:47:a2:7b:5b:ba:fc:34:b5:f6:a5:87:
                    33:52:3e:9f:b9:30:29:1f:65:70:1c:17:b6:ac:9e:
                    e3:5b:0f:ef:ec:6d:c1:df:2f:61:0d:65:77:a4:9d:
                    6b:4f:05:67:55:08:e7:f0:2b:3c:1e:d6:19:d7:06:
                    5d:ce:84:3e:23:15:7c:ae:da:a4:cd:18:06:74:42:
                    47:be:3f:93:ba:12:a8:81:83
                Exponent: 65537 (0x10001)
        X509v3 extensions:
            X509v3 Basic Constraints: critical
                CA:FALSE
            X509v3 Subject Key Identifier: 
                31:11:1F:7F:77:AE:4F:69:1D:E1:5B:03:C2:9C:A5:68:8C:7F:90:14
            X509v3 Authority Key Identifier: 
                keyid:31:11:1F:7F:77:AE:4F:69:1D:E1:5B:03:C2:9C:A5:68:8C:7F:90:14
                DirName:/O=NodeOPCUA/CN=NodeOPCUA
                serial:10:09

            X509v3 Subject Alternative Name: 
                URI:urn:NEST-EHUB70.NEST.LOCAL:NodeOPCUA-DiscoveryServer, DNS:localhost, DNS:NEST-EHUB70.NEST.LOCAL
            Netscape Comment: 
                OpenSSL Generated Certificate
            X509v3 Key Usage: critical
                Digital Signature, Non Repudiation, Key Encipherment, Data Encipherment, Key Agreement, Certificate Sign
            X509v3 Extended Key Usage: critical
                TLS Web Server Authentication, TLS Web Client Authentication
    Signature Algorithm: sha256WithRSAEncryption
         1e:45:93:eb:9b:3a:2d:13:62:29:4d:bb:fc:37:28:47:88:54:
         b1:22:bb:a0:1e:fb:b4:d2:90:86:9e:9d:00:f2:5f:60:8d:5f:
         93:81:65:5f:10:c7:8f:52:fe:93:2a:76:59:c9:63:27:eb:eb:
         17:2d:28:87:a7:55:a0:50:18:51:e7:9b:16:e7:74:1f:66:b9:
         34:c5:d3:ed:a7:07:31:e8:b5:03:08:fb:e6:82:5e:98:85:4e:
         88:c1:8b:cd:24:4d:fe:3e:fd:32:7c:23:4e:a3:5e:0d:b5:c5:
         98:4d:8d:b6:a0:f3:75:79:02:d7:a1:9c:69:21:f2:5f:a3:6d:
         c8:e8
-----BEGIN CERTIFICATE-----
MIIDFTCCAn6gAwIBAgICEAkwDQYJKoZIhvcNAQELBQAwKDESMBAGA1UEChMJTm9k
ZU9QQ1VBMRIwEAYDVQQDEwlOb2RlT1BDVUEwIhgPMjAxNzA1MzAwODI2NDdaGA8y
MDE4MDUzMDA4MjY0N1owKDESMBAGA1UEChMJTm9kZU9QQ1VBMRIwEAYDVQQDEwlO
b2RlT1BDVUEwgZ8wDQYJKoZIhvcNAQEBBQADgY0AMIGJAoGBALu+Hg1SgzFkequI
e5Vb3YMEU37n+OMhIk62shce5zG9wUfcY6XXBo5XiC7vdeS6Qkeie1u6/DS19qWH
M1I+n7kwKR9lcBwXtqye41sP7+xtwd8vYQ1ld6Sda08FZ1UI5/ArPB7WGdcGXc6E
PiMVfK7apM0YBnRCR74/k7oSqIGDAgMBAAGjggFIMIIBRDAMBgNVHRMBAf8EAjAA
MB0GA1UdDgQWBBQxER9/d65PaR3hWwPCnKVojH+QFDBRBgNVHSMESjBIgBQxER9/
d65PaR3hWwPCnKVojH+QFKEspCowKDESMBAGA1UEChMJTm9kZU9QQ1VBMRIwEAYD
VQQDEwlOb2RlT1BDVUGCAhAJMGIGA1UdEQRbMFmGNHVybjpORVNULUVIVUI3MC5O
RVNULkxPQ0FMOk5vZGVPUENVQS1EaXNjb3ZlcnlTZXJ2ZXKCCWxvY2FsaG9zdIIW
TkVTVC1FSFVCNzAuTkVTVC5MT0NBTDAsBglghkgBhvhCAQ0EHxYdT3BlblNTTCBH
ZW5lcmF0ZWQgQ2VydGlmaWNhdGUwDgYDVR0PAQH/BAQDAgL8MCAGA1UdJQEB/wQW
MBQGCCsGAQUFBwMBBggrBgEFBQcDAjANBgkqhkiG9w0BAQsFAAOBgQAeRZPrmzot
E2IpTbv8NyhHiFSxIrugHvu00pCGnp0A8l9gjV+TgWVfEMePUv6TKnZZyWMn6+sX
LSiHp1WgUBhR55sW53QfZrk0xdPtpwcx6LUDCPvmgl6YhU6IwYvNJE3+Pv0yfCNO
o14NtcWYTY22oPN1eQLXoZxpIfJfo23I6A==
-----END CERTIFICATE-----
